
lab5_VGA.elf:     file format elf32-littlenios2
lab5_VGA.elf
architecture: nios2:r1, flags 0x00000112:
EXEC_P, HAS_SYMS, D_PAGED
start address 0x00000248

Program Header:
    LOAD off    0x00001000 vaddr 0x00000000 paddr 0x00000000 align 2**12
         filesz 0x00000020 memsz 0x00000020 flags r-x
    LOAD off    0x00001020 vaddr 0x00000020 paddr 0x00000020 align 2**12
         filesz 0x0000cb2c memsz 0x0000cb2c flags r-x
    LOAD off    0x0000db4c vaddr 0x0000cb4c paddr 0x0000e538 align 2**12
         filesz 0x000019ec memsz 0x000019ec flags rw-
    LOAD off    0x0000ff24 vaddr 0x0000ff24 paddr 0x0000ff24 align 2**12
         filesz 0x00000000 memsz 0x000073c8 flags rw-

Sections:
Idx Name          Size      VMA       LMA       File off  Algn
  0 .entry        00000020  00000000  00000000  00001000  2**5
                  CONTENTS, ALLOC, LOAD, READONLY, CODE
  1 .exceptions   00000228  00000020  00000020  00001020  2**2
                  CONTENTS, ALLOC, LOAD, READONLY, CODE
  2 .text         0000c664  00000248  00000248  00001248  2**2
                  CONTENTS, ALLOC, LOAD, READONLY, CODE
  3 .rodata       000002a0  0000c8ac  0000c8ac  0000d8ac  2**2
                  CONTENTS, ALLOC, LOAD, READONLY, DATA
  4 .rwdata       000019ec  0000cb4c  0000e538  0000db4c  2**2
                  CONTENTS, ALLOC, LOAD, DATA, SMALL_DATA
  5 .bss          000073c8  0000ff24  0000ff24  0000ff24  2**2
                  ALLOC, SMALL_DATA
  6 .SDRAM        00000000  000172ec  000172ec  0000f538  2**0
                  CONTENTS
  7 .VGA_Subsystem_Char_Buf_Subsystem_Onchip_SRAM 00000000  09000000  09000000  0000f538  2**0
                  CONTENTS
  8 .comment      00000023  00000000  00000000  0000f538  2**0
                  CONTENTS, READONLY
  9 .debug_aranges 000007d8  00000000  00000000  0000f560  2**3
                  CONTENTS, READONLY, DEBUGGING
 10 .debug_info   00013a45  00000000  00000000  0000fd38  2**0
                  CONTENTS, READONLY, DEBUGGING
 11 .debug_abbrev 00004c9d  00000000  00000000  0002377d  2**0
                  CONTENTS, READONLY, DEBUGGING
 12 .debug_line   00005e54  00000000  00000000  0002841a  2**0
                  CONTENTS, READONLY, DEBUGGING
 13 .debug_frame  000023a4  00000000  00000000  0002e270  2**2
                  CONTENTS, READONLY, DEBUGGING
 14 .debug_str    000036ff  00000000  00000000  00030614  2**0
                  CONTENTS, READONLY, DEBUGGING
 15 .debug_loc    00000916  00000000  00000000  00033d13  2**0
                  CONTENTS, READONLY, DEBUGGING
 16 .debug_alt_sim_info 00000020  00000000  00000000  0003462c  2**2
                  CONTENTS, READONLY, DEBUGGING
 17 .debug_ranges 00000188  00000000  00000000  00034650  2**3
                  CONTENTS, READONLY, DEBUGGING
 18 .thread_model 00000006  00000000  00000000  000387a8  2**0
                  CONTENTS, READONLY
 19 .cpu          00000005  00000000  00000000  000387ae  2**0
                  CONTENTS, READONLY
 20 .qsys         00000001  00000000  00000000  000387b3  2**0
                  CONTENTS, READONLY
 21 .simulation_enabled 00000001  00000000  00000000  000387b4  2**0
                  CONTENTS, READONLY
 22 .sysid_hash   00000004  00000000  00000000  000387b5  2**0
                  CONTENTS, READONLY
 23 .sysid_base   00000004  00000000  00000000  000387b9  2**0
                  CONTENTS, READONLY
 24 .sysid_time   00000004  00000000  00000000  000387bd  2**0
                  CONTENTS, READONLY
 25 .stderr_dev   00000009  00000000  00000000  000387c1  2**0
                  CONTENTS, READONLY
 26 .stdin_dev    00000009  00000000  00000000  000387ca  2**0
                  CONTENTS, READONLY
 27 .stdout_dev   00000009  00000000  00000000  000387d3  2**0
                  CONTENTS, READONLY
 28 .sopc_system_name 0000000f  00000000  00000000  000387dc  2**0
                  CONTENTS, READONLY
 29 .sopcinfo     001d201d  00000000  00000000  000387eb  2**0
                  CONTENTS, READONLY
SYMBOL TABLE:
00000000 l    d  .entry	00000000 .entry
00000020 l    d  .exceptions	00000000 .exceptions
00000248 l    d  .text	00000000 .text
0000c8ac l    d  .rodata	00000000 .rodata
0000cb4c l    d  .rwdata	00000000 .rwdata
0000ff24 l    d  .bss	00000000 .bss
000172ec l    d  .SDRAM	00000000 .SDRAM
09000000 l    d  .VGA_Subsystem_Char_Buf_Subsystem_Onchip_SRAM	00000000 .VGA_Subsystem_Char_Buf_Subsystem_Onchip_SRAM
00000000 l    d  .comment	00000000 .comment
00000000 l    d  .debug_aranges	00000000 .debug_aranges
00000000 l    d  .debug_info	00000000 .debug_info
00000000 l    d  .debug_abbrev	00000000 .debug_abbrev
00000000 l    d  .debug_line	00000000 .debug_line
00000000 l    d  .debug_frame	00000000 .debug_frame
00000000 l    d  .debug_str	00000000 .debug_str
00000000 l    d  .debug_loc	00000000 .debug_loc
00000000 l    d  .debug_alt_sim_info	00000000 .debug_alt_sim_info
00000000 l    d  .debug_ranges	00000000 .debug_ranges
00000000 l    df *ABS*	00000000 ../ucos2nios2_bsp//obj/HAL/src/crt0.o
00000280 l       .text	00000000 alt_after_alt_main
00000000 l    df *ABS*	00000000 alt_irq_handler.c
00000000 l    df *ABS*	00000000 alt_instruction_exception_entry.c
00000000 l    df *ABS*	00000000 main.c
00000000 l    df *ABS*	00000000 alt_load.c
0000083c l     F .text	00000068 alt_load_section
00000000 l    df *ABS*	00000000 alt_main.c
00000000 l    df *ABS*	00000000 alt_env_lock.c
0000e490 l     O .rwdata	00000004 lockid
0000ff50 l     O .bss	00000004 locks
00000000 l    df *ABS*	00000000 alt_malloc_lock.c
0000e494 l     O .rwdata	00000004 lockid
0000ff58 l     O .bss	00000004 locks
00000000 l    df *ABS*	00000000 os_core.c
000022e0 l     F .text	00000048 OS_InitMisc
00002328 l     F .text	0000006c OS_InitRdyList
00002494 l     F .text	000000e4 OS_InitTCBList
00002200 l     F .text	000000e0 OS_InitEventList
00002394 l     F .text	00000080 OS_InitTaskIdle
00002414 l     F .text	00000080 OS_InitTaskStat
00002704 l     F .text	00000074 OS_SchedNew
00000000 l    df *ABS*	00000000 os_dbg.c
00000000 l    df *ABS*	00000000 os_flag.c
00004424 l     F .text	000000f4 OS_FlagTaskRdy
000041e4 l     F .text	00000160 OS_FlagBlock
00000000 l    df *ABS*	00000000 os_mem.c
00000000 l    df *ABS*	00000000 os_q.c
00000000 l    df *ABS*	00000000 os_sem.c
00000000 l    df *ABS*	00000000 os_task.c
00000000 l    df *ABS*	00000000 os_time.c
00000000 l    df *ABS*	00000000 alt_sys_init.c
000084d4 l     F .text	00000034 alt_dev_reg
0000cb4c l     O .rwdata	0000106c JTAG_UART
0000dbb8 l     O .rwdata	00000030 AV_Config
0000dbe8 l     O .rwdata	00000030 Audio_Subsystem_Audio
0000dc18 l     O .rwdata	0000002c Char_LCD_16x2
0000dc44 l     O .rwdata	0000002c IrDA
0000dc70 l     O .rwdata	00000038 PS2_Port
0000dca8 l     O .rwdata	00000038 PS2_Port_Dual
0000dce0 l     O .rwdata	0000002c Serial_Port
0000dd0c l     O .rwdata	00000034 USB
0000dd40 l     O .rwdata	0000005c VGA_Subsystem_Char_Buf_Subsystem_Char_Buf_DMA
0000dd9c l     O .rwdata	0000005c VGA_Subsystem_VGA_Pixel_DMA
0000ddf8 l     O .rwdata	0000005c Video_In_Subsystem_Video_In_DMA
0000de54 l     O .rwdata	00000044 VGA_Subsystem_VGA_Pixel_RGB_Resampler
0000de98 l     O .rwdata	0000002c SD_Card
00000000 l    df *ABS*	00000000 altera_avalon_jtag_uart_fd.c
00000000 l    df *ABS*	00000000 altera_avalon_jtag_uart_init.c
0000914c l     F .text	000002a8 altera_avalon_jtag_uart_irq
000093f4 l     F .text	00000104 altera_avalon_jtag_uart_timeout
00000000 l    df *ABS*	00000000 altera_avalon_jtag_uart_ioctl.c
00000000 l    df *ABS*	00000000 altera_avalon_jtag_uart_read.c
00000000 l    df *ABS*	00000000 altera_avalon_jtag_uart_write.c
00000000 l    df *ABS*	00000000 altera_avalon_timer_sc.c
00009bd0 l     F .text	0000007c alt_avalon_timer_sc_irq
00000000 l    df *ABS*	00000000 altera_up_avalon_character_lcd.c
00000000 l    df *ABS*	00000000 altera_up_avalon_irda.c
00000000 l    df *ABS*	00000000 altera_up_avalon_ps2.c
00000000 l    df *ABS*	00000000 altera_up_avalon_rs232.c
00000000 l    df *ABS*	00000000 alt_alarm_start.c
00000000 l    df *ABS*	00000000 alt_close.c
0000b0ac l     F .text	0000003c alt_get_errno
00000000 l    df *ABS*	00000000 alt_dcache_flush_all.c
00000000 l    df *ABS*	00000000 alt_dev.c
0000b1d8 l     F .text	0000002c alt_dev_null_write
00000000 l    df *ABS*	00000000 alt_dev_llist_insert.c
0000b204 l     F .text	0000003c alt_get_errno
00000000 l    df *ABS*	00000000 alt_do_ctors.c
00000000 l    df *ABS*	00000000 alt_do_dtors.c
00000000 l    df *ABS*	00000000 alt_errno.c
00000000 l    df *ABS*	00000000 alt_find_dev.c
00000000 l    df *ABS*	00000000 alt_icache_flush_all.c
00000000 l    df *ABS*	00000000 alt_io_redirect.c
0000b468 l     F .text	000000c4 alt_open_fd
00000000 l    df *ABS*	00000000 alt_irq_register.c
00000000 l    df *ABS*	00000000 alt_irq_vars.c
00000000 l    df *ABS*	00000000 alt_open.c
0000b728 l     F .text	0000003c alt_get_errno
0000b764 l     F .text	000000c4 alt_file_locked
00000000 l    df *ABS*	00000000 alt_release_fd.c
00000000 l    df *ABS*	00000000 alt_tick.c
00000000 l    df *ABS*	00000000 altera_nios2_gen2_irq.c
00000000 l    df *ABS*	00000000 os_cpu_a.o
00000040 l       *ABS*	00000000 OSCtxSw_SWITCH_PC
00000000 l    df *ABS*	00000000 os_cpu_c.c
00000014 l       *ABS*	00000000 OSTCBNext_OFFSET
00000032 l       *ABS*	00000000 OSTCBPrio_OFFSET
00000000 l       *ABS*	00000000 OSTCBStkPtr_OFFSET
00000000 l    df *ABS*	00000000 alt_find_file.c
00000000 l    df *ABS*	00000000 alt_get_fd.c
00000000 l    df *ABS*	00000000 alt_icache_flush.c
00000000 l    df *ABS*	00000000 atexit.c
00000000 l    df *ABS*	00000000 exit.c
00000000 l    df *ABS*	00000000 impure.c
0000e06c l     O .rwdata	00000424 impure_data
00000000 l    df *ABS*	00000000 int_errno.c
00000000 l    df *ABS*	00000000 memcmp.c
00000000 l    df *ABS*	00000000 memcpy.c
00000000 l    df *ABS*	00000000 memset.c
00000000 l    df *ABS*	00000000 strlen.c
00000000 l    df *ABS*	00000000 __atexit.c
00000000 l    df *ABS*	00000000 __call_atexit.c
00000000 l    df *ABS*	00000000 alt_exit.c
0000ffc0 g     O .bss	00000004 alt_instruction_exception_handler
0000e4e2 g     O .rwdata	00000002 OSTaskNameSize
00000928 g     F .text	000000bc alt_main
000171ec g     O .bss	00000100 alt_irq
0000a78c g     F .text	00000060 alt_up_ps2_disable_read_interrupt
00004c44 g     F .text	000000cc OS_MemInit
0000e538 g       *ABS*	00000000 __flash_rwdata_start
00008474 g     F .text	00000060 OSTimeSet
00009d34 g     F .text	00000040 alt_up_character_lcd_send_cmd
00000f54 g     F .text	00000610 OSEventPendMulti
0000bdd4 g     F .text	00000024 OSTaskCreateHook
0000e4ba g     O .rwdata	00000002 OSMboxEn
000015bc g     F .text	0000004c OSIntEnter
0000a5a4 g     F .text	00000034 read_CE_bit
0000e4ca g     O .rwdata	00000002 OSQEn
00000c28 g     F .text	000000cc __malloc_unlock
0000be3c g     F .text	00000020 OSTaskStatHook
0000a92c g     F .text	0000009c alt_up_ps2_read_data_byte_timeout
0000ae20 g     F .text	00000090 alt_up_rs232_read_fd
0000ff60 g     O .bss	00000001 OSLockNesting
0000e508 g     O .rwdata	00000002 OSDataSize
0000ff61 g     O .bss	00000001 OSRunning
0000be7c g     F .text	00000020 OSInitHookBegin
0000e500 g     O .rwdata	00000002 OSTmrSize
0000ffc8 g     O .bss	00002000 TaskScanKey_stk
00000564 g     F .text	0000021c TaskDrawBox
0000ff64 g     O .bss	00000004 OSIdleCtr
0000bb84 g     F .text	00000024 altera_nios2_gen2_irq_init
0000bc54 g       .text	00000000 OSStartTsk
00009cc0 g     F .text	00000074 get_DDRAM_addr
00002a44 g     F .text	000002d4 OS_TCBInit
00000000 g     F .entry	0000001c __reset
0000e506 g     O .rwdata	00000002 OSTmrWheelTblSize
00000020 g       *ABS*	00000000 __flash_exceptions_start
00011fc8 g     O .bss	00002000 TaskDrawBox_stk
0000e4a6 g     O .rwdata	00000002 OSEventSize
0000ff68 g     O .bss	00000001 OSPrioHighRdy
0000bdf8 g     F .text	00000024 OSTaskDelHook
0000ffc4 g     O .bss	00000004 errno
0000bc34 g       .text	00000000 OSStartHighRdy
00006f10 g     F .text	000001e4 OSTaskCreateExt
00003d2c g     F .text	00000060 OSFlagPendGetFlagsRdy
0000e4e6 g     O .rwdata	00000002 OSTaskStatStkSize
00002ea8 g     F .text	00000308 OSFlagAccept
0000527c g     F .text	000000b8 OSQFlush
00004d10 g     F .text	00000140 OSQAccept
0000ff48 g     O .bss	00000004 alt_argv
00016490 g       *ABS*	00000000 _gp
00006d64 g     F .text	000001ac OSTaskCreate
00006874 g     F .text	000004f0 OSTaskChangePrio
0000ff5c g     O .bss	00000004 alt_heapsem
00002d18 g     F .text	00000190 OSDebugInit
000070f4 g     F .text	00000344 OSTaskDel
0000deec g     O .rwdata	00000180 alt_fd_list
00013fc8 g     O .bss	00000370 OSFlagTbl
00001fe0 g     F .text	000000b8 OS_EventTaskRemove
0000b3a4 g     F .text	00000090 alt_find_dev
0000c2d8 g     F .text	00000148 memcpy
0000e4d0 g     O .rwdata	00000002 OSRdyTblSize
00009edc g     F .text	00000050 alt_up_character_lcd_write_fd
0000b52c g     F .text	0000007c alt_io_redirect
0000c8ac g       *ABS*	00000000 __DTOR_END__
0000a474 g     F .text	00000090 alt_up_irda_write_fd
0000adac g     F .text	00000074 alt_up_rs232_read_data
0000c174 g     F .text	0000009c alt_exception_cause_generated_bad_addr
00000cf4 g     F .text	00000120 OSEventNameGet
0000e4b4 g     O .rwdata	00000002 OSFlagMax
00001608 g     F .text	000000f8 OSIntExit
0000e4ee g     O .rwdata	00000002 OSTCBSize
0000ff69 g     O .bss	00000001 OSPrioCur
0000ff24 g     O .bss	00000004 KEY2_flag
0000a270 g     F .text	00000040 alt_up_irda_get_used_space_in_read_FIFO
00009650 g     F .text	000002bc altera_avalon_jtag_uart_read
0000e4d4 g     O .rwdata	00000002 OSStkWidth
0000e4c8 g     O .rwdata	00000002 OSPtrSize
0000e4a8 g     O .rwdata	00000002 OSEventTblSize
0000a210 g     F .text	00000060 alt_up_irda_disable_read_interrupt
0000bba8 g       .text	00000000 OSCtxSw
0000c0e4 g     F .text	00000090 alt_icache_flush
0000ff6c g     O .bss	00000004 OSTCBList
0000ffb0 g     O .bss	00000004 alt_fd_list_lock
00014338 g     O .bss	00000c30 OSMemTbl
0000ff70 g     O .bss	00000001 OSTickStepState
0000e4cc g     O .rwdata	00000002 OSQMax
00014f68 g     O .bss	00000800 OSTaskStatStk
00004880 g     F .text	000000f0 OSMemNameGet
0000e4ac g     O .rwdata	00000002 OSFlagEn
0000e4f2 g     O .rwdata	00000002 OSTimeTickHookEn
0000572c g     F .text	00000168 OSQPost
00004518 g     F .text	000000a4 OS_FlagUnlink
0000e51c g     O .rwdata	00000004 alt_max_fd
0000ad28 g     F .text	00000044 alt_up_rs232_check_parity
000025cc g     F .text	00000068 OS_MemCopy
00002634 g     F .text	000000d0 OS_Sched
00004790 g     F .text	000000f0 OSMemGet
00007720 g     F .text	000001b4 OSTaskNameSet
0000a5d8 g     F .text	00000030 read_num_bytes_available
0000ff74 g     O .bss	00000004 OSCtxSwCtr
0000be5c g     F .text	00000020 OSTimeTickHook
0000b5a8 g     F .text	00000180 alt_irq_register
0000e4b6 g     O .rwdata	00000002 OSFlagNameSize
0000a540 g     F .text	00000034 read_RI_bit
00002098 g     F .text	00000100 OS_EventTaskRemoveMulti
00001e90 g     F .text	00000150 OS_EventTaskWaitMulti
0000e4ce g     O .rwdata	00000002 OSQSize
000061dc g     F .text	0000020c OSSemPend
0000e530 g     O .rwdata	00000004 _global_impure_ptr
0000e4b8 g     O .rwdata	00000002 OSLowestPrio
000172ec g       *ABS*	00000000 __bss_end
0000bedc g     F .text	00000024 OSTCBInitHook
0000e4fe g     O .rwdata	00000002 OSTmrCfgTicksPerSec
0000ba7c g     F .text	00000108 alt_tick
000004b0 g     F .text	000000b4 TaskScanKey
0000e4a0 g     O .rwdata	00000002 OSEventEn
0000e4fa g     O .rwdata	00000002 OSTmrCfgNameSize
0000a63c g     F .text	0000002c read_data_byte
00004344 g     F .text	000000e0 OS_FlagInit
0000b9e0 g     F .text	0000009c alt_alarm_stop
00000284 g     F .text	00000068 VGA_pixel
0000a574 g     F .text	00000030 read_RE_bit
0000e4dc g     O .rwdata	00000002 OSTaskIdleStkSize
0000ffb4 g     O .bss	00000004 alt_irq_active
00005e14 g     F .text	000000b0 OSSemAccept
00000364 g     F .text	00000094 VGA_text
00004a84 g     F .text	000000d8 OSMemPut
000045bc g     F .text	000001d4 OSMemCreate
0000ff78 g     O .bss	00000004 OSIdleCtrMax
0000a2b0 g     F .text	0000003c alt_up_irda_get_available_space_in_write_FIFO
000000fc g     F .exceptions	000000d8 alt_irq_handler
0000dec4 g     O .rwdata	00000028 alt_dev_null
0000e4f0 g     O .rwdata	00000002 OSTicksPerSec
0000ff28 g     O .bss	00000004 KEY_val
0000a17c g     F .text	00000038 alt_up_character_lcd_cursor_blink_on
0000bba8 g       .text	00000000 OSIntCtxSw
0000a7ec g     F .text	00000074 alt_up_ps2_write_data_byte
0000b1b8 g     F .text	00000020 alt_dcache_flush_all
0000ff7c g     O .bss	00000004 OSTCBFreeList
0000e538 g       *ABS*	00000000 __ram_rwdata_end
000063e8 g     F .text	0000016c OSSemPendAbort
0000e514 g     O .rwdata	00000008 alt_dev_list
0000e4f4 g     O .rwdata	00000002 OSVersionNbr
0000cb4c g       *ABS*	00000000 __ram_rodata_end
0000aeb0 g     F .text	00000094 alt_up_rs232_write_fd
00000000 g       *ABS*	00000000 __alt_mem_SDRAM
0000e49c g     O .rwdata	00000004 OSEndiannessTest
0000e4ae g     O .rwdata	00000002 OSFlagGrpSize
000172ec g       *ABS*	00000000 end
0000ab1c g     F .text	00000098 alt_up_ps2_write_fd
0000a2ec g     F .text	00000044 alt_up_irda_check_parity
00009010 g     F .text	0000013c altera_avalon_jtag_uart_init
0000289c g     F .text	000000dc OS_TaskStat
000001d4 g     F .exceptions	00000074 alt_instruction_exception_entry
0000c8ac g       *ABS*	00000000 __CTOR_LIST__
04000000 g       *ABS*	00000000 __alt_stack_pointer
00009c4c g     F .text	00000074 alt_avalon_timer_sc_init
0000990c g     F .text	000002c4 altera_avalon_jtag_uart_write
00002578 g     F .text	00000054 OS_MemClr
00009de8 g     F .text	0000007c alt_up_character_lcd_write
0000bc78 g     F .text	0000015c OSTaskStkInit
00001be8 g     F .text	00000198 OS_EventTaskRdy
0000c6f8 g     F .text	00000180 __call_exitprocs
0000ff80 g     O .bss	00000001 OSCPUUsage
00000248 g     F .text	0000003c _start
0000ffb8 g     O .bss	00000004 _alt_tick_rate
00005334 g     F .text	0000028c OSQPend
00007fe0 g     F .text	00000104 OSTimeDly
0000ffbc g     O .bss	00000004 _alt_nticks
00008540 g     F .text	0000096c alt_sys_init
0000a02c g     F .text	0000008c alt_up_character_lcd_shift_display
0000c5e0 g     F .text	00000118 __register_exitproc
0000ff81 g     O .bss	00000001 OSTaskCtr
0000aa38 g     F .text	00000058 alt_up_ps2_clear_fifo
0000acec g     F .text	0000003c alt_up_rs232_get_available_space_in_write_FIFO
000003f8 g     F .text	000000b8 VGA_box
000080e4 g     F .text	00000160 OSTimeDlyHMSM
0000a0b8 g     F .text	0000008c alt_up_character_lcd_erase_pos
000094f8 g     F .text	00000068 altera_avalon_jtag_uart_close
0000cb4c g       *ABS*	00000000 __ram_rwdata_start
0000c8ac g       *ABS*	00000000 __ram_rodata_start
0000e4a2 g     O .rwdata	00000002 OSEventMax
00006554 g     F .text	00000110 OSSemPost
0000178c g     F .text	000000dc OSSchedUnlock
00008eac g     F .text	00000060 altera_avalon_jtag_uart_read_fd
0000c008 g     F .text	000000dc alt_get_fd
0000ff84 g     O .bss	00000004 OSMemFreeList
000018d8 g     F .text	000000b0 OSStatInit
00004120 g     F .text	000000c4 OSFlagQuery
0000ff2c g     O .bss	00000004 KEY1_flag
0000e4d8 g     O .rwdata	00000002 OSTaskCreateExtEn
0000c25c g     F .text	0000007c memcmp
00001bc8 g     F .text	00000020 OS_Dummy
00008f6c g     F .text	00000050 altera_avalon_jtag_uart_close_fd
000172ec g       *ABS*	00000000 __alt_stack_base
00008fbc g     F .text	00000054 altera_avalon_jtag_uart_ioctl_fd
0000a1b4 g     F .text	0000005c alt_up_irda_enable_read_interrupt
00015768 g     O .bss	000001e0 OSQTbl
0000ff88 g     O .bss	00000004 OSTCBHighRdy
0000ff8c g     O .bss	00000004 OSQFreeList
0000ac4c g     F .text	00000060 alt_up_rs232_disable_read_interrupt
0000bf00 g     F .text	00000108 alt_find_file
0000b240 g     F .text	000000a4 alt_dev_llist_insert
00000b08 g     F .text	00000120 __malloc_lock
00000e14 g     F .text	00000140 OSEventNameSet
0000ff90 g     O .bss	00000001 OSRdyGrp
0000ff24 g       *ABS*	00000000 __bss_start
0000c420 g     F .text	00000128 memset
0000ff30 g     O .bss	00000001 err
00000780 g     F .text	000000bc main
0000ff4c g     O .bss	00000004 alt_envp
00008f0c g     F .text	00000060 altera_avalon_jtag_uart_write_fd
0000c8bc g     O .rodata	00000100 OSUnMapTbl
0000e4d2 g     O .rwdata	00000002 OSSemEn
00009fa0 g     F .text	0000008c alt_up_character_lcd_shift_cursor
00003d8c g     F .text	00000394 OSFlagPost
00001d80 g     F .text	00000110 OS_EventTaskWait
0000a9c8 g     F .text	00000070 alt_up_ps2_read_data_byte
00002978 g     F .text	000000cc OS_TaskStatStkChk
00007438 g     F .text	00000150 OSTaskDelReq
0000e520 g     O .rwdata	00000004 alt_errno
00001868 g     F .text	00000070 OSStart
00000aa8 g     F .text	00000060 __env_unlock
000078d4 g     F .text	000001d4 OSTaskResume
00004b5c g     F .text	000000e8 OSMemQuery
0000e4e4 g     O .rwdata	00000002 OSTaskStatEn
0000a330 g     F .text	00000040 alt_up_irda_write_data
0000e4be g     O .rwdata	00000002 OSMemMax
00005894 g     F .text	00000170 OSQPostFront
0000abb4 g     F .text	0000003c alt_up_ps2_open_dev
0000ff91 g     O .bss	00000003 OSRdyTbl
0000e498 g     O .rwdata	00000002 OSDebugEn
00009dac g     F .text	0000003c alt_up_character_lcd_open_dev
0000a730 g     F .text	0000005c alt_up_ps2_enable_read_interrupt
0000c8ac g       *ABS*	00000000 __CTOR_END__
0000e4b0 g     O .rwdata	00000002 OSFlagNodeSize
0000e4f8 g     O .rwdata	00000002 OSTmrCfgMax
00009d74 g     F .text	00000038 alt_up_character_lcd_init
00004e50 g     F .text	000001ac OSQCreate
00007588 g     F .text	00000198 OSTaskNameGet
0000c8ac g       *ABS*	00000000 __flash_rodata_start
00005a04 g     F .text	0000020c OSQPostOpt
00001988 g     F .text	00000220 OSTimeTick
0000e4e0 g     O .rwdata	00000002 OSTaskMax
0000c8ac g       *ABS*	00000000 __DTOR_LIST__
00005ec4 g     F .text	000000d8 OSSemCreate
0000e504 g     O .rwdata	00000002 OSTmrWheelSize
0000ff34 g     O .bss	00000004 KEY3_flag
0000af44 g     F .text	0000003c alt_up_rs232_open_dev
0000e4da g     O .rwdata	00000002 OSTaskDelEn
00006664 g     F .text	00000110 OSSemQuery
00004ffc g     F .text	00000280 OSQDel
000055c0 g     F .text	0000016c OSQPendAbort
00008508 g     F .text	00000038 alt_irq_init
0000b97c g     F .text	00000064 alt_release_fd
0000a608 g     F .text	00000034 read_data_valid
0000a144 g     F .text	00000038 alt_up_character_lcd_cursor_off
0000a8c8 g     F .text	00000064 alt_up_ps2_write_data_byte_with_ack
0000c210 g     F .text	00000014 atexit
00001700 g     F .text	0000008c OSSchedLock
000031b0 g     F .text	00000108 OSFlagCreate
0000e534 g     O .rwdata	00000004 _impure_ptr
0000ff44 g     O .bss	00000004 alt_argc
0000b344 g     F .text	00000060 _do_dtors
0000e4aa g     O .rwdata	00000002 OSEventMultiEn
09000000 g       *ABS*	00000000 __alt_mem_VGA_Subsystem_Char_Buf_Subsystem_Onchip_SRAM
000032b8 g     F .text	00000248 OSFlagDel
0000ff94 g     O .bss	00000004 OSEventFreeList
00000020 g       .exceptions	00000000 alt_irq_entry
00003774 g     F .text	000005b8 OSFlagPend
0000e4f6 g     O .rwdata	00000002 OSTmrEn
0000e50c g     O .rwdata	00000008 alt_fs_list
00002778 g     F .text	00000074 OS_StrCopy
0000abf0 g     F .text	0000005c alt_up_rs232_enable_read_interrupt
0000ad6c g     F .text	00000040 alt_up_rs232_write_data
0000e4c0 g     O .rwdata	00000002 OSMemNameSize
0000be9c g     F .text	00000020 OSInitHookEnd
00000020 g       *ABS*	00000000 __ram_exceptions_start
0000e4ec g     O .rwdata	00000002 OSTCBPrioTblMax
0000e4e8 g     O .rwdata	00000002 OSTaskStatStkChkEn
0000e4bc g     O .rwdata	00000002 OSMemEn
0000e4c6 g     O .rwdata	00000002 OSMutexEn
0000e538 g       *ABS*	00000000 _edata
0000ff38 g     O .bss	00000004 KEY0_flag
000172ec g       *ABS*	00000000 _end
0000ff98 g     O .bss	00000001 OSIntNesting
00000248 g       *ABS*	00000000 __ram_exceptions_end
00009560 g     F .text	000000f0 altera_avalon_jtag_uart_ioctl
00008244 g     F .text	000001d4 OSTimeDlyResume
00003628 g     F .text	0000014c OSFlagNameSet
00007aa8 g     F .text	000001c0 OSTaskStkChk
0000e4c2 g     O .rwdata	00000002 OSMemSize
0000ff9c g     O .bss	00000004 OSTCBCur
0000c224 g     F .text	00000038 exit
0000a370 g     F .text	00000074 alt_up_irda_read_data
0000e4c4 g     O .rwdata	00000002 OSMemTblSize
0000a668 g     F .text	000000c8 alt_up_ps2_init
04000000 g       *ABS*	00000000 __alt_data_end
00000020 g     F .exceptions	00000000 alt_exception
00001564 g     F .text	00000058 OSInit
00007e4c g     F .text	00000124 OSTaskQuery
00009e64 g     F .text	00000078 alt_up_character_lcd_string
00005d6c g     F .text	000000a8 OS_QInit
000027ec g     F .text	00000054 OS_StrLen
0000a504 g     F .text	0000003c alt_up_irda_open_dev
00004970 g     F .text	00000114 OSMemNameSet
0000e4de g     O .rwdata	00000002 OSTaskProfileEn
0000ffa0 g     O .bss	00000004 OSTime
00015948 g     O .bss	00000800 OSTaskIdleStk
0000c878 g     F .text	00000034 _exit
0000af80 g     F .text	0000012c alt_alarm_start
00003500 g     F .text	00000128 OSFlagNameGet
00008418 g     F .text	0000005c OSTimeGet
0000a860 g     F .text	00000068 alt_up_ps2_wait_for_ack
0000c548 g     F .text	00000098 strlen
0000be1c g     F .text	00000020 OSTaskSwHook
0000b828 g     F .text	00000154 open
00016148 g     O .bss	00000b40 OSEventTbl
000002ec g     F .text	00000078 VGA_clear
00016c88 g     O .bss	00000510 OSTCBTbl
00006774 g     F .text	00000100 OSSemSet
0000ff3c g     O .bss	00000004 KeySem
0000b434 g     F .text	00000034 alt_icache_flush_all
00009f2c g     F .text	00000074 alt_up_character_lcd_set_cursor_pos
0000e524 g     O .rwdata	00000004 alt_priority_mask
00005f9c g     F .text	00000240 OSSemDel
0000ffa4 g     O .bss	00000004 OSFlagFreeList
0000e4a4 g     O .rwdata	00000002 OSEventNameSize
0000ffa8 g     O .bss	00000001 OSStatRdy
00017198 g     O .bss	00000054 OSTCBPrioTbl
000009e4 g     F .text	000000c4 __env_lock
0000aa90 g     F .text	0000008c alt_up_ps2_read_fd
0000e4ea g     O .rwdata	00000002 OSTaskSwHookEn
0000a3e4 g     F .text	00000090 alt_up_irda_read_fd
0000e528 g     O .rwdata	00000008 alt_alarm_list
0000e4b2 g     O .rwdata	00000002 OSFlagWidth
0000b2e4 g     F .text	00000060 _do_ctors
0000acac g     F .text	00000040 alt_up_rs232_get_used_space_in_read_FIFO
0000b0e8 g     F .text	000000d0 close
0000ff54 g     O .bss	00000004 alt_envsem
0000ffac g     O .bss	00000004 OSIdleCtrRun
00001ba8 g     F .text	00000020 OSVersion
0000e4fc g     O .rwdata	00000002 OSTmrCfgWheelSize
000008a4 g     F .text	00000084 alt_load
00007f70 g     F .text	00000070 OS_TaskStkClr
0000e4d6 g     O .rwdata	00000002 OSTaskCreateEn
00002198 g     F .text	00000068 OS_EventWaitListInit
0000bebc g     F .text	00000020 OSTaskIdleHook
0000ff40 g     O .bss	00000002 value
00007c68 g     F .text	000001e4 OSTaskSuspend
00002840 g     F .text	0000005c OS_TaskIdle
0000e502 g     O .rwdata	00000002 OSTmrTblSize
00005c10 g     F .text	0000015c OSQQuery



Disassembly of section .entry:

00000000 <__reset>:
   0:	00840014 	movui	r2,4096
   4:	1001483a 	initi	r2
   8:	10bff804 	addi	r2,r2,-32
   c:	00bffd16 	blt	zero,r2,4 <__reset+0x4>
  10:	00400034 	movhi	at,0
  14:	08409214 	ori	at,at,584
  18:	0800683a 	jmp	at
  1c:	00000000 	call	0 <__reset>

Disassembly of section .exceptions:

00000020 <alt_exception>:
  20:	deffed04 	addi	sp,sp,-76
  24:	dfc00015 	stw	ra,0(sp)
  28:	d8400215 	stw	at,8(sp)
  2c:	d8800315 	stw	r2,12(sp)
  30:	d8c00415 	stw	r3,16(sp)
  34:	d9000515 	stw	r4,20(sp)
  38:	d9400615 	stw	r5,24(sp)
  3c:	d9800715 	stw	r6,28(sp)
  40:	d9c00815 	stw	r7,32(sp)
  44:	000b307a 	rdctl	r5,estatus
  48:	da000915 	stw	r8,36(sp)
  4c:	da400a15 	stw	r9,40(sp)
  50:	da800b15 	stw	r10,44(sp)
  54:	dac00c15 	stw	r11,48(sp)
  58:	db000d15 	stw	r12,52(sp)
  5c:	db400e15 	stw	r13,56(sp)
  60:	db800f15 	stw	r14,60(sp)
  64:	dbc01015 	stw	r15,64(sp)
  68:	d9401115 	stw	r5,68(sp)
  6c:	ebffff04 	addi	r15,ea,-4
  70:	dbc01215 	stw	r15,72(sp)
  74:	0009313a 	rdctl	r4,ipending
  78:	2880004c 	andi	r2,r5,1
  7c:	10000326 	beq	r2,zero,8c <OSCtxSw_SWITCH_PC+0x4c>
  80:	20000226 	beq	r4,zero,8c <OSCtxSw_SWITCH_PC+0x4c>
  84:	00000fc0 	call	fc <alt_irq_handler>
  88:	00000706 	br	a8 <OSCtxSw_SWITCH_PC+0x68>
  8c:	df401215 	stw	ea,72(sp)
  90:	e8bfff17 	ldw	r2,-4(ea)
  94:	e93fff04 	addi	r4,ea,-4
  98:	00001d40 	call	1d4 <alt_instruction_exception_entry>
  9c:	1000021e 	bne	r2,zero,a8 <OSCtxSw_SWITCH_PC+0x68>
  a0:	ebffff04 	addi	r15,ea,-4
  a4:	dbc01215 	stw	r15,72(sp)
  a8:	d9401117 	ldw	r5,68(sp)
  ac:	df401217 	ldw	ea,72(sp)
  b0:	dfc00017 	ldw	ra,0(sp)
  b4:	2801707a 	wrctl	estatus,r5
  b8:	d8400217 	ldw	at,8(sp)
  bc:	d8800317 	ldw	r2,12(sp)
  c0:	d8c00417 	ldw	r3,16(sp)
  c4:	d9000517 	ldw	r4,20(sp)
  c8:	d9400617 	ldw	r5,24(sp)
  cc:	d9800717 	ldw	r6,28(sp)
  d0:	d9c00817 	ldw	r7,32(sp)
  d4:	da000917 	ldw	r8,36(sp)
  d8:	da400a17 	ldw	r9,40(sp)
  dc:	da800b17 	ldw	r10,44(sp)
  e0:	dac00c17 	ldw	r11,48(sp)
  e4:	db000d17 	ldw	r12,52(sp)
  e8:	db400e17 	ldw	r13,56(sp)
  ec:	db800f17 	ldw	r14,60(sp)
  f0:	dbc01017 	ldw	r15,64(sp)
  f4:	dec01304 	addi	sp,sp,76
  f8:	ef80083a 	eret

000000fc <alt_irq_handler>:
  fc:	defff904 	addi	sp,sp,-28
 100:	dfc00615 	stw	ra,24(sp)
 104:	df000515 	stw	fp,20(sp)
 108:	df000504 	addi	fp,sp,20
 10c:	00015bc0 	call	15bc <OSIntEnter>
 110:	0005313a 	rdctl	r2,ipending
 114:	e0bffe15 	stw	r2,-8(fp)
 118:	e0bffe17 	ldw	r2,-8(fp)
 11c:	e0bffb15 	stw	r2,-20(fp)
 120:	e03ffd15 	stw	zero,-12(fp)
 124:	00800044 	movi	r2,1
 128:	e0bffc15 	stw	r2,-16(fp)
 12c:	e0fffb17 	ldw	r3,-20(fp)
 130:	e0bffc17 	ldw	r2,-16(fp)
 134:	1884703a 	and	r2,r3,r2
 138:	10001526 	beq	r2,zero,190 <alt_irq_handler+0x94>
 13c:	00800074 	movhi	r2,1
 140:	109c7b04 	addi	r2,r2,29164
 144:	e0fffd17 	ldw	r3,-12(fp)
 148:	180690fa 	slli	r3,r3,3
 14c:	10c5883a 	add	r2,r2,r3
 150:	10c00017 	ldw	r3,0(r2)
 154:	00800074 	movhi	r2,1
 158:	109c7b04 	addi	r2,r2,29164
 15c:	e13ffd17 	ldw	r4,-12(fp)
 160:	200890fa 	slli	r4,r4,3
 164:	1105883a 	add	r2,r2,r4
 168:	10800104 	addi	r2,r2,4
 16c:	10800017 	ldw	r2,0(r2)
 170:	e17ffd17 	ldw	r5,-12(fp)
 174:	1009883a 	mov	r4,r2
 178:	183ee83a 	callr	r3
 17c:	0001883a 	nop
 180:	0005313a 	rdctl	r2,ipending
 184:	e0bfff15 	stw	r2,-4(fp)
 188:	e0bfff17 	ldw	r2,-4(fp)
 18c:	00000706 	br	1ac <alt_irq_handler+0xb0>
 190:	e0bffc17 	ldw	r2,-16(fp)
 194:	1085883a 	add	r2,r2,r2
 198:	e0bffc15 	stw	r2,-16(fp)
 19c:	e0bffd17 	ldw	r2,-12(fp)
 1a0:	10800044 	addi	r2,r2,1
 1a4:	e0bffd15 	stw	r2,-12(fp)
 1a8:	003fe006 	br	12c <alt_irq_handler+0x30>
 1ac:	e0bffb15 	stw	r2,-20(fp)
 1b0:	e0bffb17 	ldw	r2,-20(fp)
 1b4:	103fda1e 	bne	r2,zero,120 <alt_irq_handler+0x24>
 1b8:	00016080 	call	1608 <OSIntExit>
 1bc:	0001883a 	nop
 1c0:	e037883a 	mov	sp,fp
 1c4:	dfc00117 	ldw	ra,4(sp)
 1c8:	df000017 	ldw	fp,0(sp)
 1cc:	dec00204 	addi	sp,sp,8
 1d0:	f800283a 	ret

000001d4 <alt_instruction_exception_entry>:
 1d4:	defffb04 	addi	sp,sp,-20
 1d8:	dfc00415 	stw	ra,16(sp)
 1dc:	df000315 	stw	fp,12(sp)
 1e0:	df000304 	addi	fp,sp,12
 1e4:	e13fff15 	stw	r4,-4(fp)
 1e8:	000531fa 	rdctl	r2,exception
 1ec:	e0bffd15 	stw	r2,-12(fp)
 1f0:	e0bffd17 	ldw	r2,-12(fp)
 1f4:	10801f0c 	andi	r2,r2,124
 1f8:	1004d0ba 	srli	r2,r2,2
 1fc:	e0bffd15 	stw	r2,-12(fp)
 200:	0005333a 	rdctl	r2,badaddr
 204:	e0bffe15 	stw	r2,-8(fp)
 208:	d0a6cc17 	ldw	r2,-25808(gp)
 20c:	10000726 	beq	r2,zero,22c <alt_instruction_exception_entry+0x58>
 210:	d0a6cc17 	ldw	r2,-25808(gp)
 214:	e0fffd17 	ldw	r3,-12(fp)
 218:	e1bffe17 	ldw	r6,-8(fp)
 21c:	e17fff17 	ldw	r5,-4(fp)
 220:	1809883a 	mov	r4,r3
 224:	103ee83a 	callr	r2
 228:	00000206 	br	234 <alt_instruction_exception_entry+0x60>
 22c:	003da03a 	break	0
 230:	0005883a 	mov	r2,zero
 234:	e037883a 	mov	sp,fp
 238:	dfc00117 	ldw	ra,4(sp)
 23c:	df000017 	ldw	fp,0(sp)
 240:	dec00204 	addi	sp,sp,8
 244:	f800283a 	ret

Disassembly of section .text:

00000248 <_start>:
     248:	06c10034 	movhi	sp,1024
     24c:	dec00014 	ori	sp,sp,0
     250:	06800074 	movhi	gp,1
     254:	d6992414 	ori	gp,gp,25744
     258:	00800034 	movhi	r2,0
     25c:	10bfc914 	ori	r2,r2,65316
     260:	00c00074 	movhi	r3,1
     264:	18dcbb14 	ori	r3,r3,29420
     268:	10c00326 	beq	r2,r3,278 <_start+0x30>
     26c:	10000015 	stw	zero,0(r2)
     270:	10800104 	addi	r2,r2,4
     274:	10fffd36 	bltu	r2,r3,26c <_start+0x24>
     278:	00008a40 	call	8a4 <alt_load>
     27c:	00009280 	call	928 <alt_main>

00000280 <alt_after_alt_main>:
     280:	003fff06 	br	280 <alt_after_alt_main>

00000284 <VGA_pixel>:
     284:	defffa04 	addi	sp,sp,-24
     288:	df000515 	stw	fp,20(sp)
     28c:	df000504 	addi	fp,sp,20
     290:	e13ffd15 	stw	r4,-12(fp)
     294:	e17ffe15 	stw	r5,-8(fp)
     298:	3005883a 	mov	r2,r6
     29c:	e0bfff0d 	sth	r2,-4(fp)
     2a0:	00820034 	movhi	r2,2048
     2a4:	e0bffb15 	stw	r2,-20(fp)
     2a8:	e0bffe17 	ldw	r2,-8(fp)
     2ac:	1006927a 	slli	r3,r2,9
     2b0:	e0bffd17 	ldw	r2,-12(fp)
     2b4:	1885883a 	add	r2,r3,r2
     2b8:	e0bffc15 	stw	r2,-16(fp)
     2bc:	e0bffc17 	ldw	r2,-16(fp)
     2c0:	1085883a 	add	r2,r2,r2
     2c4:	1007883a 	mov	r3,r2
     2c8:	e0bffb17 	ldw	r2,-20(fp)
     2cc:	10c5883a 	add	r2,r2,r3
     2d0:	e0ffff0b 	ldhu	r3,-4(fp)
     2d4:	10c0000d 	sth	r3,0(r2)
     2d8:	0001883a 	nop
     2dc:	e037883a 	mov	sp,fp
     2e0:	df000017 	ldw	fp,0(sp)
     2e4:	dec00104 	addi	sp,sp,4
     2e8:	f800283a 	ret

000002ec <VGA_clear>:
     2ec:	defffc04 	addi	sp,sp,-16
     2f0:	dfc00315 	stw	ra,12(sp)
     2f4:	df000215 	stw	fp,8(sp)
     2f8:	df000204 	addi	fp,sp,8
     2fc:	e03ffe15 	stw	zero,-8(fp)
     300:	00000f06 	br	340 <VGA_clear+0x54>
     304:	e03fff15 	stw	zero,-4(fp)
     308:	00000706 	br	328 <VGA_clear+0x3c>
     30c:	000d883a 	mov	r6,zero
     310:	e17fff17 	ldw	r5,-4(fp)
     314:	e13ffe17 	ldw	r4,-8(fp)
     318:	00002840 	call	284 <VGA_pixel>
     31c:	e0bfff17 	ldw	r2,-4(fp)
     320:	10800044 	addi	r2,r2,1
     324:	e0bfff15 	stw	r2,-4(fp)
     328:	e0bfff17 	ldw	r2,-4(fp)
     32c:	10803c10 	cmplti	r2,r2,240
     330:	103ff61e 	bne	r2,zero,30c <VGA_clear+0x20>
     334:	e0bffe17 	ldw	r2,-8(fp)
     338:	10800044 	addi	r2,r2,1
     33c:	e0bffe15 	stw	r2,-8(fp)
     340:	e0bffe17 	ldw	r2,-8(fp)
     344:	10802810 	cmplti	r2,r2,160
     348:	103fee1e 	bne	r2,zero,304 <VGA_clear+0x18>
     34c:	0001883a 	nop
     350:	e037883a 	mov	sp,fp
     354:	dfc00117 	ldw	ra,4(sp)
     358:	df000017 	ldw	fp,0(sp)
     35c:	dec00204 	addi	sp,sp,8
     360:	f800283a 	ret

00000364 <VGA_text>:
     364:	defffa04 	addi	sp,sp,-24
     368:	df000515 	stw	fp,20(sp)
     36c:	df000504 	addi	fp,sp,20
     370:	e13ffd15 	stw	r4,-12(fp)
     374:	e17ffe15 	stw	r5,-8(fp)
     378:	e1bfff15 	stw	r6,-4(fp)
     37c:	00824034 	movhi	r2,2304
     380:	e0bffc15 	stw	r2,-16(fp)
     384:	e0bffe17 	ldw	r2,-8(fp)
     388:	100691fa 	slli	r3,r2,7
     38c:	e0bffd17 	ldw	r2,-12(fp)
     390:	1885883a 	add	r2,r3,r2
     394:	e0bffb15 	stw	r2,-20(fp)
     398:	00000c06 	br	3cc <VGA_text+0x68>
     39c:	e0bffb17 	ldw	r2,-20(fp)
     3a0:	e0fffc17 	ldw	r3,-16(fp)
     3a4:	1885883a 	add	r2,r3,r2
     3a8:	e0ffff17 	ldw	r3,-4(fp)
     3ac:	18c00003 	ldbu	r3,0(r3)
     3b0:	10c00005 	stb	r3,0(r2)
     3b4:	e0bfff17 	ldw	r2,-4(fp)
     3b8:	10800044 	addi	r2,r2,1
     3bc:	e0bfff15 	stw	r2,-4(fp)
     3c0:	e0bffb17 	ldw	r2,-20(fp)
     3c4:	10800044 	addi	r2,r2,1
     3c8:	e0bffb15 	stw	r2,-20(fp)
     3cc:	e0bfff17 	ldw	r2,-4(fp)
     3d0:	10800003 	ldbu	r2,0(r2)
     3d4:	10803fcc 	andi	r2,r2,255
     3d8:	1080201c 	xori	r2,r2,128
     3dc:	10bfe004 	addi	r2,r2,-128
     3e0:	103fee1e 	bne	r2,zero,39c <VGA_text+0x38>
     3e4:	0001883a 	nop
     3e8:	e037883a 	mov	sp,fp
     3ec:	df000017 	ldw	fp,0(sp)
     3f0:	dec00104 	addi	sp,sp,4
     3f4:	f800283a 	ret

000003f8 <VGA_box>:
     3f8:	defff604 	addi	sp,sp,-40
     3fc:	df000915 	stw	fp,36(sp)
     400:	df000904 	addi	fp,sp,36
     404:	e13ffb15 	stw	r4,-20(fp)
     408:	e17ffc15 	stw	r5,-16(fp)
     40c:	e1bffd15 	stw	r6,-12(fp)
     410:	e1fffe15 	stw	r7,-8(fp)
     414:	e0800117 	ldw	r2,4(fp)
     418:	e0bfff0d 	sth	r2,-4(fp)
     41c:	00820034 	movhi	r2,2048
     420:	e0bff915 	stw	r2,-28(fp)
     424:	e0bffc17 	ldw	r2,-16(fp)
     428:	e0bff715 	stw	r2,-36(fp)
     42c:	00001806 	br	490 <VGA_box+0x98>
     430:	e0bffb17 	ldw	r2,-20(fp)
     434:	e0bff815 	stw	r2,-32(fp)
     438:	00000f06 	br	478 <VGA_box+0x80>
     43c:	e0bff717 	ldw	r2,-36(fp)
     440:	1006927a 	slli	r3,r2,9
     444:	e0bff817 	ldw	r2,-32(fp)
     448:	1885883a 	add	r2,r3,r2
     44c:	e0bffa15 	stw	r2,-24(fp)
     450:	e0bffa17 	ldw	r2,-24(fp)
     454:	1085883a 	add	r2,r2,r2
     458:	1007883a 	mov	r3,r2
     45c:	e0bff917 	ldw	r2,-28(fp)
     460:	10c5883a 	add	r2,r2,r3
     464:	e0ffff0b 	ldhu	r3,-4(fp)
     468:	10c0000d 	sth	r3,0(r2)
     46c:	e0bff817 	ldw	r2,-32(fp)
     470:	10800044 	addi	r2,r2,1
     474:	e0bff815 	stw	r2,-32(fp)
     478:	e0bff817 	ldw	r2,-32(fp)
     47c:	e0fffd17 	ldw	r3,-12(fp)
     480:	18bfee0e 	bge	r3,r2,43c <VGA_box+0x44>
     484:	e0bff717 	ldw	r2,-36(fp)
     488:	10800044 	addi	r2,r2,1
     48c:	e0bff715 	stw	r2,-36(fp)
     490:	e0bff717 	ldw	r2,-36(fp)
     494:	e0fffe17 	ldw	r3,-8(fp)
     498:	18bfe50e 	bge	r3,r2,430 <VGA_box+0x38>
     49c:	0001883a 	nop
     4a0:	e037883a 	mov	sp,fp
     4a4:	df000017 	ldw	fp,0(sp)
     4a8:	dec00104 	addi	sp,sp,4
     4ac:	f800283a 	ret

000004b0 <TaskScanKey>:
     4b0:	defffd04 	addi	sp,sp,-12
     4b4:	dfc00215 	stw	ra,8(sp)
     4b8:	df000115 	stw	fp,4(sp)
     4bc:	df000104 	addi	fp,sp,4
     4c0:	e13fff15 	stw	r4,-4(fp)
     4c4:	00002ec0 	call	2ec <VGA_clear>
     4c8:	d0a6ab17 	ldw	r2,-25940(gp)
     4cc:	d1a6a804 	addi	r6,gp,-25952
     4d0:	000b883a 	mov	r5,zero
     4d4:	1009883a 	mov	r4,r2
     4d8:	00061dc0 	call	61dc <OSSemPend>
     4dc:	00bfc834 	movhi	r2,65312
     4e0:	10801404 	addi	r2,r2,80
     4e4:	10800017 	ldw	r2,0(r2)
     4e8:	108003cc 	andi	r2,r2,15
     4ec:	d0a6a615 	stw	r2,-25960(gp)
     4f0:	d0a6a617 	ldw	r2,-25960(gp)
     4f4:	10800058 	cmpnei	r2,r2,1
     4f8:	1000031e 	bne	r2,zero,508 <TaskScanKey+0x58>
     4fc:	00800044 	movi	r2,1
     500:	d0a6aa15 	stw	r2,-25944(gp)
     504:	00001106 	br	54c <TaskScanKey+0x9c>
     508:	d0a6a617 	ldw	r2,-25960(gp)
     50c:	10800098 	cmpnei	r2,r2,2
     510:	1000031e 	bne	r2,zero,520 <TaskScanKey+0x70>
     514:	00800044 	movi	r2,1
     518:	d0a6a715 	stw	r2,-25956(gp)
     51c:	00000b06 	br	54c <TaskScanKey+0x9c>
     520:	d0a6a617 	ldw	r2,-25960(gp)
     524:	10800118 	cmpnei	r2,r2,4
     528:	1000031e 	bne	r2,zero,538 <TaskScanKey+0x88>
     52c:	00800044 	movi	r2,1
     530:	d0a6a515 	stw	r2,-25964(gp)
     534:	00000506 	br	54c <TaskScanKey+0x9c>
     538:	d0a6a617 	ldw	r2,-25960(gp)
     53c:	10800218 	cmpnei	r2,r2,8
     540:	1000021e 	bne	r2,zero,54c <TaskScanKey+0x9c>
     544:	00800044 	movi	r2,1
     548:	d0a6a915 	stw	r2,-25948(gp)
     54c:	d0a6ab17 	ldw	r2,-25940(gp)
     550:	1009883a 	mov	r4,r2
     554:	00065540 	call	6554 <OSSemPost>
     558:	01000044 	movi	r4,1
     55c:	0007fe00 	call	7fe0 <OSTimeDly>
     560:	003fd906 	br	4c8 <TaskScanKey+0x18>

00000564 <TaskDrawBox>:
     564:	defff804 	addi	sp,sp,-32
     568:	dfc00715 	stw	ra,28(sp)
     56c:	df000615 	stw	fp,24(sp)
     570:	df000604 	addi	fp,sp,24
     574:	e13fff15 	stw	r4,-4(fp)
     578:	00002ec0 	call	2ec <VGA_clear>
     57c:	00802584 	movi	r2,150
     580:	e0bffb15 	stw	r2,-20(fp)
     584:	00801b84 	movi	r2,110
     588:	e0bffc15 	stw	r2,-16(fp)
     58c:	00802a84 	movi	r2,170
     590:	e0bffd15 	stw	r2,-12(fp)
     594:	00802084 	movi	r2,130
     598:	e0bffe15 	stw	r2,-8(fp)
     59c:	00861fc4 	movi	r2,6271
     5a0:	d8800015 	stw	r2,0(sp)
     5a4:	e1fffe17 	ldw	r7,-8(fp)
     5a8:	e1bffd17 	ldw	r6,-12(fp)
     5ac:	e17ffc17 	ldw	r5,-16(fp)
     5b0:	e13ffb17 	ldw	r4,-20(fp)
     5b4:	00003f80 	call	3f8 <VGA_box>
     5b8:	d0a6ab17 	ldw	r2,-25940(gp)
     5bc:	d1a6a804 	addi	r6,gp,-25952
     5c0:	000b883a 	mov	r5,zero
     5c4:	1009883a 	mov	r4,r2
     5c8:	00061dc0 	call	61dc <OSSemPend>
     5cc:	d0a6a617 	ldw	r2,-25960(gp)
     5d0:	1080004c 	andi	r2,r2,1
     5d4:	1000171e 	bne	r2,zero,634 <TaskDrawBox+0xd0>
     5d8:	d0a6aa17 	ldw	r2,-25944(gp)
     5dc:	10001526 	beq	r2,zero,634 <TaskDrawBox+0xd0>
     5e0:	d026aa15 	stw	zero,-25944(gp)
     5e4:	d8000015 	stw	zero,0(sp)
     5e8:	e1fffe17 	ldw	r7,-8(fp)
     5ec:	e1bffd17 	ldw	r6,-12(fp)
     5f0:	e17ffc17 	ldw	r5,-16(fp)
     5f4:	e13ffb17 	ldw	r4,-20(fp)
     5f8:	00003f80 	call	3f8 <VGA_box>
     5fc:	e0bffb17 	ldw	r2,-20(fp)
     600:	10800144 	addi	r2,r2,5
     604:	e0bffb15 	stw	r2,-20(fp)
     608:	e0bffd17 	ldw	r2,-12(fp)
     60c:	10800144 	addi	r2,r2,5
     610:	e0bffd15 	stw	r2,-12(fp)
     614:	00861fc4 	movi	r2,6271
     618:	d8800015 	stw	r2,0(sp)
     61c:	e1fffe17 	ldw	r7,-8(fp)
     620:	e1bffd17 	ldw	r6,-12(fp)
     624:	e17ffc17 	ldw	r5,-16(fp)
     628:	e13ffb17 	ldw	r4,-20(fp)
     62c:	00003f80 	call	3f8 <VGA_box>
     630:	00004d06 	br	768 <TaskDrawBox+0x204>
     634:	d0a6a617 	ldw	r2,-25960(gp)
     638:	1080008c 	andi	r2,r2,2
     63c:	1000171e 	bne	r2,zero,69c <TaskDrawBox+0x138>
     640:	d0a6a717 	ldw	r2,-25956(gp)
     644:	10001526 	beq	r2,zero,69c <TaskDrawBox+0x138>
     648:	d026a715 	stw	zero,-25956(gp)
     64c:	d8000015 	stw	zero,0(sp)
     650:	e1fffe17 	ldw	r7,-8(fp)
     654:	e1bffd17 	ldw	r6,-12(fp)
     658:	e17ffc17 	ldw	r5,-16(fp)
     65c:	e13ffb17 	ldw	r4,-20(fp)
     660:	00003f80 	call	3f8 <VGA_box>
     664:	e0bffc17 	ldw	r2,-16(fp)
     668:	10800144 	addi	r2,r2,5
     66c:	e0bffc15 	stw	r2,-16(fp)
     670:	e0bffe17 	ldw	r2,-8(fp)
     674:	10800144 	addi	r2,r2,5
     678:	e0bffe15 	stw	r2,-8(fp)
     67c:	00861fc4 	movi	r2,6271
     680:	d8800015 	stw	r2,0(sp)
     684:	e1fffe17 	ldw	r7,-8(fp)
     688:	e1bffd17 	ldw	r6,-12(fp)
     68c:	e17ffc17 	ldw	r5,-16(fp)
     690:	e13ffb17 	ldw	r4,-20(fp)
     694:	00003f80 	call	3f8 <VGA_box>
     698:	00003306 	br	768 <TaskDrawBox+0x204>
     69c:	d0a6a617 	ldw	r2,-25960(gp)
     6a0:	1080010c 	andi	r2,r2,4
     6a4:	1000171e 	bne	r2,zero,704 <TaskDrawBox+0x1a0>
     6a8:	d0a6a517 	ldw	r2,-25964(gp)
     6ac:	10001526 	beq	r2,zero,704 <TaskDrawBox+0x1a0>
     6b0:	d026a515 	stw	zero,-25964(gp)
     6b4:	d8000015 	stw	zero,0(sp)
     6b8:	e1fffe17 	ldw	r7,-8(fp)
     6bc:	e1bffd17 	ldw	r6,-12(fp)
     6c0:	e17ffc17 	ldw	r5,-16(fp)
     6c4:	e13ffb17 	ldw	r4,-20(fp)
     6c8:	00003f80 	call	3f8 <VGA_box>
     6cc:	e0bffc17 	ldw	r2,-16(fp)
     6d0:	10bffec4 	addi	r2,r2,-5
     6d4:	e0bffc15 	stw	r2,-16(fp)
     6d8:	e0bffe17 	ldw	r2,-8(fp)
     6dc:	10bffec4 	addi	r2,r2,-5
     6e0:	e0bffe15 	stw	r2,-8(fp)
     6e4:	00861fc4 	movi	r2,6271
     6e8:	d8800015 	stw	r2,0(sp)
     6ec:	e1fffe17 	ldw	r7,-8(fp)
     6f0:	e1bffd17 	ldw	r6,-12(fp)
     6f4:	e17ffc17 	ldw	r5,-16(fp)
     6f8:	e13ffb17 	ldw	r4,-20(fp)
     6fc:	00003f80 	call	3f8 <VGA_box>
     700:	00001906 	br	768 <TaskDrawBox+0x204>
     704:	d0a6a617 	ldw	r2,-25960(gp)
     708:	1080020c 	andi	r2,r2,8
     70c:	1000161e 	bne	r2,zero,768 <TaskDrawBox+0x204>
     710:	d0a6a917 	ldw	r2,-25948(gp)
     714:	10001426 	beq	r2,zero,768 <TaskDrawBox+0x204>
     718:	d026a915 	stw	zero,-25948(gp)
     71c:	d8000015 	stw	zero,0(sp)
     720:	e1fffe17 	ldw	r7,-8(fp)
     724:	e1bffd17 	ldw	r6,-12(fp)
     728:	e17ffc17 	ldw	r5,-16(fp)
     72c:	e13ffb17 	ldw	r4,-20(fp)
     730:	00003f80 	call	3f8 <VGA_box>
     734:	e0bffb17 	ldw	r2,-20(fp)
     738:	10bffec4 	addi	r2,r2,-5
     73c:	e0bffb15 	stw	r2,-20(fp)
     740:	e0bffd17 	ldw	r2,-12(fp)
     744:	10bffec4 	addi	r2,r2,-5
     748:	e0bffd15 	stw	r2,-12(fp)
     74c:	00861fc4 	movi	r2,6271
     750:	d8800015 	stw	r2,0(sp)
     754:	e1fffe17 	ldw	r7,-8(fp)
     758:	e1bffd17 	ldw	r6,-12(fp)
     75c:	e17ffc17 	ldw	r5,-16(fp)
     760:	e13ffb17 	ldw	r4,-20(fp)
     764:	00003f80 	call	3f8 <VGA_box>
     768:	d0a6ab17 	ldw	r2,-25940(gp)
     76c:	1009883a 	mov	r4,r2
     770:	00065540 	call	6554 <OSSemPost>
     774:	01000044 	movi	r4,1
     778:	0007fe00 	call	7fe0 <OSTimeDly>
     77c:	003f8e06 	br	5b8 <TaskDrawBox+0x54>

00000780 <main>:
     780:	defff904 	addi	sp,sp,-28
     784:	dfc00615 	stw	ra,24(sp)
     788:	df000515 	stw	fp,20(sp)
     78c:	df000504 	addi	fp,sp,20
     790:	d8000415 	stw	zero,16(sp)
     794:	d8000315 	stw	zero,12(sp)
     798:	00820004 	movi	r2,2048
     79c:	d8800215 	stw	r2,8(sp)
     7a0:	00800074 	movhi	r2,1
     7a4:	10bff204 	addi	r2,r2,-56
     7a8:	d8800115 	stw	r2,4(sp)
     7ac:	00800144 	movi	r2,5
     7b0:	d8800015 	stw	r2,0(sp)
     7b4:	01c00144 	movi	r7,5
     7b8:	01800074 	movhi	r6,1
     7bc:	3187f104 	addi	r6,r6,8132
     7c0:	000b883a 	mov	r5,zero
     7c4:	01000034 	movhi	r4,0
     7c8:	21012c04 	addi	r4,r4,1200
     7cc:	0006f100 	call	6f10 <OSTaskCreateExt>
     7d0:	d8000415 	stw	zero,16(sp)
     7d4:	d8000315 	stw	zero,12(sp)
     7d8:	00820004 	movi	r2,2048
     7dc:	d8800215 	stw	r2,8(sp)
     7e0:	00800074 	movhi	r2,1
     7e4:	1087f204 	addi	r2,r2,8136
     7e8:	d8800115 	stw	r2,4(sp)
     7ec:	00800184 	movi	r2,6
     7f0:	d8800015 	stw	r2,0(sp)
     7f4:	01c00184 	movi	r7,6
     7f8:	01800074 	movhi	r6,1
     7fc:	318ff104 	addi	r6,r6,16324
     800:	000b883a 	mov	r5,zero
     804:	01000034 	movhi	r4,0
     808:	21015904 	addi	r4,r4,1380
     80c:	0006f100 	call	6f10 <OSTaskCreateExt>
     810:	00002ec0 	call	2ec <VGA_clear>
     814:	01000044 	movi	r4,1
     818:	0005ec40 	call	5ec4 <OSSemCreate>
     81c:	d0a6ab15 	stw	r2,-25940(gp)
     820:	00018680 	call	1868 <OSStart>
     824:	0005883a 	mov	r2,zero
     828:	e037883a 	mov	sp,fp
     82c:	dfc00117 	ldw	ra,4(sp)
     830:	df000017 	ldw	fp,0(sp)
     834:	dec00204 	addi	sp,sp,8
     838:	f800283a 	ret

0000083c <alt_load_section>:
     83c:	defffc04 	addi	sp,sp,-16
     840:	df000315 	stw	fp,12(sp)
     844:	df000304 	addi	fp,sp,12
     848:	e13ffd15 	stw	r4,-12(fp)
     84c:	e17ffe15 	stw	r5,-8(fp)
     850:	e1bfff15 	stw	r6,-4(fp)
     854:	e0fffe17 	ldw	r3,-8(fp)
     858:	e0bffd17 	ldw	r2,-12(fp)
     85c:	18800c26 	beq	r3,r2,890 <alt_load_section+0x54>
     860:	00000806 	br	884 <alt_load_section+0x48>
     864:	e0bffe17 	ldw	r2,-8(fp)
     868:	10c00104 	addi	r3,r2,4
     86c:	e0fffe15 	stw	r3,-8(fp)
     870:	e0fffd17 	ldw	r3,-12(fp)
     874:	19000104 	addi	r4,r3,4
     878:	e13ffd15 	stw	r4,-12(fp)
     87c:	18c00017 	ldw	r3,0(r3)
     880:	10c00015 	stw	r3,0(r2)
     884:	e0fffe17 	ldw	r3,-8(fp)
     888:	e0bfff17 	ldw	r2,-4(fp)
     88c:	18bff51e 	bne	r3,r2,864 <alt_load_section+0x28>
     890:	0001883a 	nop
     894:	e037883a 	mov	sp,fp
     898:	df000017 	ldw	fp,0(sp)
     89c:	dec00104 	addi	sp,sp,4
     8a0:	f800283a 	ret

000008a4 <alt_load>:
     8a4:	defffe04 	addi	sp,sp,-8
     8a8:	dfc00115 	stw	ra,4(sp)
     8ac:	df000015 	stw	fp,0(sp)
     8b0:	d839883a 	mov	fp,sp
     8b4:	01800074 	movhi	r6,1
     8b8:	31b94e04 	addi	r6,r6,-6856
     8bc:	01400074 	movhi	r5,1
     8c0:	2972d304 	addi	r5,r5,-13492
     8c4:	01000074 	movhi	r4,1
     8c8:	21394e04 	addi	r4,r4,-6856
     8cc:	000083c0 	call	83c <alt_load_section>
     8d0:	01800034 	movhi	r6,0
     8d4:	31809204 	addi	r6,r6,584
     8d8:	01400034 	movhi	r5,0
     8dc:	29400804 	addi	r5,r5,32
     8e0:	01000034 	movhi	r4,0
     8e4:	21000804 	addi	r4,r4,32
     8e8:	000083c0 	call	83c <alt_load_section>
     8ec:	01800074 	movhi	r6,1
     8f0:	31b2d304 	addi	r6,r6,-13492
     8f4:	01400074 	movhi	r5,1
     8f8:	29722b04 	addi	r5,r5,-14164
     8fc:	01000074 	movhi	r4,1
     900:	21322b04 	addi	r4,r4,-14164
     904:	000083c0 	call	83c <alt_load_section>
     908:	000b1b80 	call	b1b8 <alt_dcache_flush_all>
     90c:	000b4340 	call	b434 <alt_icache_flush_all>
     910:	0001883a 	nop
     914:	e037883a 	mov	sp,fp
     918:	dfc00117 	ldw	ra,4(sp)
     91c:	df000017 	ldw	fp,0(sp)
     920:	dec00204 	addi	sp,sp,8
     924:	f800283a 	ret

00000928 <alt_main>:
     928:	defff904 	addi	sp,sp,-28
     92c:	dfc00615 	stw	ra,24(sp)
     930:	df000515 	stw	fp,20(sp)
     934:	df000504 	addi	fp,sp,20
     938:	0009883a 	mov	r4,zero
     93c:	00085080 	call	8508 <alt_irq_init>
     940:	00015640 	call	1564 <OSInit>
     944:	01000044 	movi	r4,1
     948:	0005ec40 	call	5ec4 <OSSemCreate>
     94c:	d0a6b115 	stw	r2,-25916(gp)
     950:	01000044 	movi	r4,1
     954:	0005ec40 	call	5ec4 <OSSemCreate>
     958:	d0a6b315 	stw	r2,-25908(gp)
     95c:	d0a6c804 	addi	r2,gp,-25824
     960:	e0bffc15 	stw	r2,-16(fp)
     964:	00800044 	movi	r2,1
     968:	e0bffd0d 	sth	r2,-12(fp)
     96c:	e0bffd0b 	ldhu	r2,-12(fp)
     970:	1009883a 	mov	r4,r2
     974:	0005ec40 	call	5ec4 <OSSemCreate>
     978:	1007883a 	mov	r3,r2
     97c:	e0bffc17 	ldw	r2,-16(fp)
     980:	10c00015 	stw	r3,0(r2)
     984:	00085400 	call	8540 <alt_sys_init>
     988:	01800074 	movhi	r6,1
     98c:	31b22b04 	addi	r6,r6,-14164
     990:	01400074 	movhi	r5,1
     994:	29722b04 	addi	r5,r5,-14164
     998:	01000074 	movhi	r4,1
     99c:	21322b04 	addi	r4,r4,-14164
     9a0:	000b52c0 	call	b52c <alt_io_redirect>
     9a4:	000b2e40 	call	b2e4 <_do_ctors>
     9a8:	01000074 	movhi	r4,1
     9ac:	212cd104 	addi	r4,r4,-19644
     9b0:	000c2100 	call	c210 <atexit>
     9b4:	d0a6ad17 	ldw	r2,-25932(gp)
     9b8:	d0e6ae17 	ldw	r3,-25928(gp)
     9bc:	d126af17 	ldw	r4,-25924(gp)
     9c0:	200d883a 	mov	r6,r4
     9c4:	180b883a 	mov	r5,r3
     9c8:	1009883a 	mov	r4,r2
     9cc:	00007800 	call	780 <main>
     9d0:	e0bffb15 	stw	r2,-20(fp)
     9d4:	01000044 	movi	r4,1
     9d8:	000b0e80 	call	b0e8 <close>
     9dc:	e13ffb17 	ldw	r4,-20(fp)
     9e0:	000c2240 	call	c224 <exit>

000009e4 <__env_lock>:
     9e4:	deffdf04 	addi	sp,sp,-132
     9e8:	dfc02015 	stw	ra,128(sp)
     9ec:	df001f15 	stw	fp,124(sp)
     9f0:	df001f04 	addi	fp,sp,124
     9f4:	e13fff15 	stw	r4,-4(fp)
     9f8:	e0bfe204 	addi	r2,fp,-120
     9fc:	100b883a 	mov	r5,r2
     a00:	01003fc4 	movi	r4,255
     a04:	0007e4c0 	call	7e4c <OSTaskQuery>
     a08:	e0bffe85 	stb	r2,-6(fp)
     a0c:	e0bffe83 	ldbu	r2,-6(fp)
     a10:	10803fcc 	andi	r2,r2,255
     a14:	10001e1e 	bne	r2,zero,a90 <__env_lock+0xac>
     a18:	e0bfee83 	ldbu	r2,-70(fp)
     a1c:	10803fcc 	andi	r2,r2,255
     a20:	e0bfe115 	stw	r2,-124(fp)
     a24:	d0a6b117 	ldw	r2,-25916(gp)
     a28:	e0fffd04 	addi	r3,fp,-12
     a2c:	180b883a 	mov	r5,r3
     a30:	1009883a 	mov	r4,r2
     a34:	00066640 	call	6664 <OSSemQuery>
     a38:	e0bffe43 	ldbu	r2,-7(fp)
     a3c:	10803fcc 	andi	r2,r2,255
     a40:	10000726 	beq	r2,zero,a60 <__env_lock+0x7c>
     a44:	d0a00017 	ldw	r2,-32768(gp)
     a48:	e0ffe117 	ldw	r3,-124(fp)
     a4c:	1880041e 	bne	r3,r2,a60 <__env_lock+0x7c>
     a50:	d0a6b017 	ldw	r2,-25920(gp)
     a54:	10800044 	addi	r2,r2,1
     a58:	d0a6b015 	stw	r2,-25920(gp)
     a5c:	00000a06 	br	a88 <__env_lock+0xa4>
     a60:	d0a6b117 	ldw	r2,-25916(gp)
     a64:	e0fffe84 	addi	r3,fp,-6
     a68:	180d883a 	mov	r6,r3
     a6c:	000b883a 	mov	r5,zero
     a70:	1009883a 	mov	r4,r2
     a74:	00061dc0 	call	61dc <OSSemPend>
     a78:	00800044 	movi	r2,1
     a7c:	d0a6b015 	stw	r2,-25920(gp)
     a80:	e0bfe117 	ldw	r2,-124(fp)
     a84:	d0a00015 	stw	r2,-32768(gp)
     a88:	0001883a 	nop
     a8c:	00000106 	br	a94 <__env_lock+0xb0>
     a90:	0001883a 	nop
     a94:	e037883a 	mov	sp,fp
     a98:	dfc00117 	ldw	ra,4(sp)
     a9c:	df000017 	ldw	fp,0(sp)
     aa0:	dec00204 	addi	sp,sp,8
     aa4:	f800283a 	ret

00000aa8 <__env_unlock>:
     aa8:	defffd04 	addi	sp,sp,-12
     aac:	dfc00215 	stw	ra,8(sp)
     ab0:	df000115 	stw	fp,4(sp)
     ab4:	df000104 	addi	fp,sp,4
     ab8:	e13fff15 	stw	r4,-4(fp)
     abc:	d0a6b017 	ldw	r2,-25920(gp)
     ac0:	10000b26 	beq	r2,zero,af0 <__env_unlock+0x48>
     ac4:	d0a6b017 	ldw	r2,-25920(gp)
     ac8:	10bfffc4 	addi	r2,r2,-1
     acc:	d0a6b015 	stw	r2,-25920(gp)
     ad0:	d0a6b017 	ldw	r2,-25920(gp)
     ad4:	1000071e 	bne	r2,zero,af4 <__env_unlock+0x4c>
     ad8:	00bfffc4 	movi	r2,-1
     adc:	d0a00015 	stw	r2,-32768(gp)
     ae0:	d0a6b117 	ldw	r2,-25916(gp)
     ae4:	1009883a 	mov	r4,r2
     ae8:	00065540 	call	6554 <OSSemPost>
     aec:	00000106 	br	af4 <__env_unlock+0x4c>
     af0:	0001883a 	nop
     af4:	e037883a 	mov	sp,fp
     af8:	dfc00117 	ldw	ra,4(sp)
     afc:	df000017 	ldw	fp,0(sp)
     b00:	dec00204 	addi	sp,sp,8
     b04:	f800283a 	ret

00000b08 <__malloc_lock>:
     b08:	deffdb04 	addi	sp,sp,-148
     b0c:	dfc02415 	stw	ra,144(sp)
     b10:	df002315 	stw	fp,140(sp)
     b14:	df002304 	addi	fp,sp,140
     b18:	e13fff15 	stw	r4,-4(fp)
     b1c:	e03fdd15 	stw	zero,-140(fp)
     b20:	d0a6b443 	ldbu	r2,-25903(gp)
     b24:	10803fcc 	andi	r2,r2,255
     b28:	10800060 	cmpeqi	r2,r2,1
     b2c:	10003626 	beq	r2,zero,c08 <__malloc_lock+0x100>
     b30:	e0bfe204 	addi	r2,fp,-120
     b34:	100b883a 	mov	r5,r2
     b38:	01003fc4 	movi	r4,255
     b3c:	0007e4c0 	call	7e4c <OSTaskQuery>
     b40:	e0bffe85 	stb	r2,-6(fp)
     b44:	e0bffe83 	ldbu	r2,-6(fp)
     b48:	10803fcc 	andi	r2,r2,255
     b4c:	1000301e 	bne	r2,zero,c10 <__malloc_lock+0x108>
     b50:	e0bfee83 	ldbu	r2,-70(fp)
     b54:	10803fcc 	andi	r2,r2,255
     b58:	e0bfde15 	stw	r2,-136(fp)
     b5c:	d0a6b317 	ldw	r2,-25908(gp)
     b60:	e0fffd04 	addi	r3,fp,-12
     b64:	180b883a 	mov	r5,r3
     b68:	1009883a 	mov	r4,r2
     b6c:	00066640 	call	6664 <OSSemQuery>
     b70:	0005303a 	rdctl	r2,status
     b74:	e0bfe115 	stw	r2,-124(fp)
     b78:	e0ffe117 	ldw	r3,-124(fp)
     b7c:	00bfff84 	movi	r2,-2
     b80:	1884703a 	and	r2,r3,r2
     b84:	1001703a 	wrctl	status,r2
     b88:	e0bfe117 	ldw	r2,-124(fp)
     b8c:	e0bfdd15 	stw	r2,-140(fp)
     b90:	e0bffd0b 	ldhu	r2,-12(fp)
     b94:	10bfffcc 	andi	r2,r2,65535
     b98:	10000b1e 	bne	r2,zero,bc8 <__malloc_lock+0xc0>
     b9c:	d0a00117 	ldw	r2,-32764(gp)
     ba0:	e0ffde17 	ldw	r3,-136(fp)
     ba4:	1880081e 	bne	r3,r2,bc8 <__malloc_lock+0xc0>
     ba8:	d0a6b217 	ldw	r2,-25912(gp)
     bac:	10800044 	addi	r2,r2,1
     bb0:	d0a6b215 	stw	r2,-25912(gp)
     bb4:	e0bfdd17 	ldw	r2,-140(fp)
     bb8:	e0bfdf15 	stw	r2,-132(fp)
     bbc:	e0bfdf17 	ldw	r2,-132(fp)
     bc0:	1001703a 	wrctl	status,r2
     bc4:	00000e06 	br	c00 <__malloc_lock+0xf8>
     bc8:	e0bfdd17 	ldw	r2,-140(fp)
     bcc:	e0bfe015 	stw	r2,-128(fp)
     bd0:	e0bfe017 	ldw	r2,-128(fp)
     bd4:	1001703a 	wrctl	status,r2
     bd8:	d0a6b317 	ldw	r2,-25908(gp)
     bdc:	e0fffe84 	addi	r3,fp,-6
     be0:	180d883a 	mov	r6,r3
     be4:	000b883a 	mov	r5,zero
     be8:	1009883a 	mov	r4,r2
     bec:	00061dc0 	call	61dc <OSSemPend>
     bf0:	00800044 	movi	r2,1
     bf4:	d0a6b215 	stw	r2,-25912(gp)
     bf8:	e0bfde17 	ldw	r2,-136(fp)
     bfc:	d0a00115 	stw	r2,-32764(gp)
     c00:	0001883a 	nop
     c04:	00000306 	br	c14 <__malloc_lock+0x10c>
     c08:	0001883a 	nop
     c0c:	00000106 	br	c14 <__malloc_lock+0x10c>
     c10:	0001883a 	nop
     c14:	e037883a 	mov	sp,fp
     c18:	dfc00117 	ldw	ra,4(sp)
     c1c:	df000017 	ldw	fp,0(sp)
     c20:	dec00204 	addi	sp,sp,8
     c24:	f800283a 	ret

00000c28 <__malloc_unlock>:
     c28:	defff804 	addi	sp,sp,-32
     c2c:	dfc00715 	stw	ra,28(sp)
     c30:	df000615 	stw	fp,24(sp)
     c34:	df000604 	addi	fp,sp,24
     c38:	e13fff15 	stw	r4,-4(fp)
     c3c:	e03ffa15 	stw	zero,-24(fp)
     c40:	d0a6b443 	ldbu	r2,-25903(gp)
     c44:	10803fcc 	andi	r2,r2,255
     c48:	10800060 	cmpeqi	r2,r2,1
     c4c:	10002326 	beq	r2,zero,cdc <__malloc_unlock+0xb4>
     c50:	0005303a 	rdctl	r2,status
     c54:	e0bffe15 	stw	r2,-8(fp)
     c58:	e0fffe17 	ldw	r3,-8(fp)
     c5c:	00bfff84 	movi	r2,-2
     c60:	1884703a 	and	r2,r3,r2
     c64:	1001703a 	wrctl	status,r2
     c68:	e0bffe17 	ldw	r2,-8(fp)
     c6c:	e0bffa15 	stw	r2,-24(fp)
     c70:	d0a6b217 	ldw	r2,-25912(gp)
     c74:	1000051e 	bne	r2,zero,c8c <__malloc_unlock+0x64>
     c78:	e0bffa17 	ldw	r2,-24(fp)
     c7c:	e0bffb15 	stw	r2,-20(fp)
     c80:	e0bffb17 	ldw	r2,-20(fp)
     c84:	1001703a 	wrctl	status,r2
     c88:	00001506 	br	ce0 <__malloc_unlock+0xb8>
     c8c:	d0a6b217 	ldw	r2,-25912(gp)
     c90:	10bfffc4 	addi	r2,r2,-1
     c94:	d0a6b215 	stw	r2,-25912(gp)
     c98:	d0a6b217 	ldw	r2,-25912(gp)
     c9c:	10000a1e 	bne	r2,zero,cc8 <__malloc_unlock+0xa0>
     ca0:	00bfffc4 	movi	r2,-1
     ca4:	d0a00115 	stw	r2,-32764(gp)
     ca8:	e0bffa17 	ldw	r2,-24(fp)
     cac:	e0bffc15 	stw	r2,-16(fp)
     cb0:	e0bffc17 	ldw	r2,-16(fp)
     cb4:	1001703a 	wrctl	status,r2
     cb8:	d0a6b317 	ldw	r2,-25908(gp)
     cbc:	1009883a 	mov	r4,r2
     cc0:	00065540 	call	6554 <OSSemPost>
     cc4:	00000606 	br	ce0 <__malloc_unlock+0xb8>
     cc8:	e0bffa17 	ldw	r2,-24(fp)
     ccc:	e0bffd15 	stw	r2,-12(fp)
     cd0:	e0bffd17 	ldw	r2,-12(fp)
     cd4:	1001703a 	wrctl	status,r2
     cd8:	00000106 	br	ce0 <__malloc_unlock+0xb8>
     cdc:	0001883a 	nop
     ce0:	e037883a 	mov	sp,fp
     ce4:	dfc00117 	ldw	ra,4(sp)
     ce8:	df000017 	ldw	fp,0(sp)
     cec:	dec00204 	addi	sp,sp,8
     cf0:	f800283a 	ret

00000cf4 <OSEventNameGet>:
     cf4:	defff704 	addi	sp,sp,-36
     cf8:	dfc00815 	stw	ra,32(sp)
     cfc:	df000715 	stw	fp,28(sp)
     d00:	df000704 	addi	fp,sp,28
     d04:	e13ffd15 	stw	r4,-12(fp)
     d08:	e17ffe15 	stw	r5,-8(fp)
     d0c:	e1bfff15 	stw	r6,-4(fp)
     d10:	e03ff915 	stw	zero,-28(fp)
     d14:	e0bfff17 	ldw	r2,-4(fp)
     d18:	1000021e 	bne	r2,zero,d24 <OSEventNameGet+0x30>
     d1c:	0005883a 	mov	r2,zero
     d20:	00003706 	br	e00 <OSEventNameGet+0x10c>
     d24:	e0bffd17 	ldw	r2,-12(fp)
     d28:	1000051e 	bne	r2,zero,d40 <OSEventNameGet+0x4c>
     d2c:	e0bfff17 	ldw	r2,-4(fp)
     d30:	00c00104 	movi	r3,4
     d34:	10c00005 	stb	r3,0(r2)
     d38:	0005883a 	mov	r2,zero
     d3c:	00003006 	br	e00 <OSEventNameGet+0x10c>
     d40:	e0bffe17 	ldw	r2,-8(fp)
     d44:	1000051e 	bne	r2,zero,d5c <OSEventNameGet+0x68>
     d48:	e0bfff17 	ldw	r2,-4(fp)
     d4c:	00c00304 	movi	r3,12
     d50:	10c00005 	stb	r3,0(r2)
     d54:	0005883a 	mov	r2,zero
     d58:	00002906 	br	e00 <OSEventNameGet+0x10c>
     d5c:	d0a6c203 	ldbu	r2,-25848(gp)
     d60:	10803fcc 	andi	r2,r2,255
     d64:	10000526 	beq	r2,zero,d7c <OSEventNameGet+0x88>
     d68:	e0bfff17 	ldw	r2,-4(fp)
     d6c:	00c00444 	movi	r3,17
     d70:	10c00005 	stb	r3,0(r2)
     d74:	0005883a 	mov	r2,zero
     d78:	00002106 	br	e00 <OSEventNameGet+0x10c>
     d7c:	e0bffd17 	ldw	r2,-12(fp)
     d80:	10800003 	ldbu	r2,0(r2)
     d84:	10803fcc 	andi	r2,r2,255
     d88:	10bfffc4 	addi	r2,r2,-1
     d8c:	10800128 	cmpgeui	r2,r2,4
     d90:	10000526 	beq	r2,zero,da8 <OSEventNameGet+0xb4>
     d94:	e0bfff17 	ldw	r2,-4(fp)
     d98:	00c00044 	movi	r3,1
     d9c:	10c00005 	stb	r3,0(r2)
     da0:	0005883a 	mov	r2,zero
     da4:	00001606 	br	e00 <OSEventNameGet+0x10c>
     da8:	0001883a 	nop
     dac:	0005303a 	rdctl	r2,status
     db0:	e0bffb15 	stw	r2,-20(fp)
     db4:	e0fffb17 	ldw	r3,-20(fp)
     db8:	00bfff84 	movi	r2,-2
     dbc:	1884703a 	and	r2,r3,r2
     dc0:	1001703a 	wrctl	status,r2
     dc4:	e0bffb17 	ldw	r2,-20(fp)
     dc8:	e0bff915 	stw	r2,-28(fp)
     dcc:	e0bffd17 	ldw	r2,-12(fp)
     dd0:	10800384 	addi	r2,r2,14
     dd4:	100b883a 	mov	r5,r2
     dd8:	e13ffe17 	ldw	r4,-8(fp)
     ddc:	00027780 	call	2778 <OS_StrCopy>
     de0:	e0bffa05 	stb	r2,-24(fp)
     de4:	e0bff917 	ldw	r2,-28(fp)
     de8:	e0bffc15 	stw	r2,-16(fp)
     dec:	e0bffc17 	ldw	r2,-16(fp)
     df0:	1001703a 	wrctl	status,r2
     df4:	e0bfff17 	ldw	r2,-4(fp)
     df8:	10000005 	stb	zero,0(r2)
     dfc:	e0bffa03 	ldbu	r2,-24(fp)
     e00:	e037883a 	mov	sp,fp
     e04:	dfc00117 	ldw	ra,4(sp)
     e08:	df000017 	ldw	fp,0(sp)
     e0c:	dec00204 	addi	sp,sp,8
     e10:	f800283a 	ret

00000e14 <OSEventNameSet>:
     e14:	defff604 	addi	sp,sp,-40
     e18:	dfc00915 	stw	ra,36(sp)
     e1c:	df000815 	stw	fp,32(sp)
     e20:	df000804 	addi	fp,sp,32
     e24:	e13ffd15 	stw	r4,-12(fp)
     e28:	e17ffe15 	stw	r5,-8(fp)
     e2c:	e1bfff15 	stw	r6,-4(fp)
     e30:	e03ff815 	stw	zero,-32(fp)
     e34:	e0bfff17 	ldw	r2,-4(fp)
     e38:	10004026 	beq	r2,zero,f3c <OSEventNameSet+0x128>
     e3c:	e0bffd17 	ldw	r2,-12(fp)
     e40:	1000041e 	bne	r2,zero,e54 <OSEventNameSet+0x40>
     e44:	e0bfff17 	ldw	r2,-4(fp)
     e48:	00c00104 	movi	r3,4
     e4c:	10c00005 	stb	r3,0(r2)
     e50:	00003b06 	br	f40 <OSEventNameSet+0x12c>
     e54:	e0bffe17 	ldw	r2,-8(fp)
     e58:	1000041e 	bne	r2,zero,e6c <OSEventNameSet+0x58>
     e5c:	e0bfff17 	ldw	r2,-4(fp)
     e60:	00c00304 	movi	r3,12
     e64:	10c00005 	stb	r3,0(r2)
     e68:	00003506 	br	f40 <OSEventNameSet+0x12c>
     e6c:	d0a6c203 	ldbu	r2,-25848(gp)
     e70:	10803fcc 	andi	r2,r2,255
     e74:	10000426 	beq	r2,zero,e88 <OSEventNameSet+0x74>
     e78:	e0bfff17 	ldw	r2,-4(fp)
     e7c:	00c00484 	movi	r3,18
     e80:	10c00005 	stb	r3,0(r2)
     e84:	00002e06 	br	f40 <OSEventNameSet+0x12c>
     e88:	e0bffd17 	ldw	r2,-12(fp)
     e8c:	10800003 	ldbu	r2,0(r2)
     e90:	10803fcc 	andi	r2,r2,255
     e94:	10bfffc4 	addi	r2,r2,-1
     e98:	10800128 	cmpgeui	r2,r2,4
     e9c:	10000426 	beq	r2,zero,eb0 <OSEventNameSet+0x9c>
     ea0:	e0bfff17 	ldw	r2,-4(fp)
     ea4:	00c00044 	movi	r3,1
     ea8:	10c00005 	stb	r3,0(r2)
     eac:	00002406 	br	f40 <OSEventNameSet+0x12c>
     eb0:	0001883a 	nop
     eb4:	0005303a 	rdctl	r2,status
     eb8:	e0bffc15 	stw	r2,-16(fp)
     ebc:	e0fffc17 	ldw	r3,-16(fp)
     ec0:	00bfff84 	movi	r2,-2
     ec4:	1884703a 	and	r2,r3,r2
     ec8:	1001703a 	wrctl	status,r2
     ecc:	e0bffc17 	ldw	r2,-16(fp)
     ed0:	e0bff815 	stw	r2,-32(fp)
     ed4:	e13ffe17 	ldw	r4,-8(fp)
     ed8:	00027ec0 	call	27ec <OS_StrLen>
     edc:	e0bffa05 	stb	r2,-24(fp)
     ee0:	e0bffa03 	ldbu	r2,-24(fp)
     ee4:	10800830 	cmpltui	r2,r2,32
     ee8:	1000081e 	bne	r2,zero,f0c <OSEventNameSet+0xf8>
     eec:	e0bff817 	ldw	r2,-32(fp)
     ef0:	e0bff915 	stw	r2,-28(fp)
     ef4:	e0bff917 	ldw	r2,-28(fp)
     ef8:	1001703a 	wrctl	status,r2
     efc:	e0bfff17 	ldw	r2,-4(fp)
     f00:	00c002c4 	movi	r3,11
     f04:	10c00005 	stb	r3,0(r2)
     f08:	00000d06 	br	f40 <OSEventNameSet+0x12c>
     f0c:	e0bffd17 	ldw	r2,-12(fp)
     f10:	10800384 	addi	r2,r2,14
     f14:	e17ffe17 	ldw	r5,-8(fp)
     f18:	1009883a 	mov	r4,r2
     f1c:	00027780 	call	2778 <OS_StrCopy>
     f20:	e0bff817 	ldw	r2,-32(fp)
     f24:	e0bffb15 	stw	r2,-20(fp)
     f28:	e0bffb17 	ldw	r2,-20(fp)
     f2c:	1001703a 	wrctl	status,r2
     f30:	e0bfff17 	ldw	r2,-4(fp)
     f34:	10000005 	stb	zero,0(r2)
     f38:	00000106 	br	f40 <OSEventNameSet+0x12c>
     f3c:	0001883a 	nop
     f40:	e037883a 	mov	sp,fp
     f44:	dfc00117 	ldw	ra,4(sp)
     f48:	df000017 	ldw	fp,0(sp)
     f4c:	dec00204 	addi	sp,sp,8
     f50:	f800283a 	ret

00000f54 <OSEventPendMulti>:
     f54:	deffed04 	addi	sp,sp,-76
     f58:	dfc01215 	stw	ra,72(sp)
     f5c:	df001115 	stw	fp,68(sp)
     f60:	df001104 	addi	fp,sp,68
     f64:	e13ffc15 	stw	r4,-16(fp)
     f68:	e17ffd15 	stw	r5,-12(fp)
     f6c:	e1bffe15 	stw	r6,-8(fp)
     f70:	3805883a 	mov	r2,r7
     f74:	e0bfff0d 	sth	r2,-4(fp)
     f78:	e03ff315 	stw	zero,-52(fp)
     f7c:	e0800217 	ldw	r2,8(fp)
     f80:	1000021e 	bne	r2,zero,f8c <OSEventPendMulti+0x38>
     f84:	0005883a 	mov	r2,zero
     f88:	00017106 	br	1550 <OSEventPendMulti+0x5fc>
     f8c:	e0bffc17 	ldw	r2,-16(fp)
     f90:	1000051e 	bne	r2,zero,fa8 <OSEventPendMulti+0x54>
     f94:	e0800217 	ldw	r2,8(fp)
     f98:	00c00104 	movi	r3,4
     f9c:	10c00005 	stb	r3,0(r2)
     fa0:	0005883a 	mov	r2,zero
     fa4:	00016a06 	br	1550 <OSEventPendMulti+0x5fc>
     fa8:	e0bffd17 	ldw	r2,-12(fp)
     fac:	1000051e 	bne	r2,zero,fc4 <OSEventPendMulti+0x70>
     fb0:	e0800217 	ldw	r2,8(fp)
     fb4:	00c00104 	movi	r3,4
     fb8:	10c00005 	stb	r3,0(r2)
     fbc:	0005883a 	mov	r2,zero
     fc0:	00016306 	br	1550 <OSEventPendMulti+0x5fc>
     fc4:	e0bffe17 	ldw	r2,-8(fp)
     fc8:	1000051e 	bne	r2,zero,fe0 <OSEventPendMulti+0x8c>
     fcc:	e0800217 	ldw	r2,8(fp)
     fd0:	00c00104 	movi	r3,4
     fd4:	10c00005 	stb	r3,0(r2)
     fd8:	0005883a 	mov	r2,zero
     fdc:	00015c06 	br	1550 <OSEventPendMulti+0x5fc>
     fe0:	e0bffd17 	ldw	r2,-12(fp)
     fe4:	10000015 	stw	zero,0(r2)
     fe8:	e0bffc17 	ldw	r2,-16(fp)
     fec:	e0bfef15 	stw	r2,-68(fp)
     ff0:	e0bfef17 	ldw	r2,-68(fp)
     ff4:	10800017 	ldw	r2,0(r2)
     ff8:	e0bff015 	stw	r2,-64(fp)
     ffc:	00001906 	br	1064 <OSEventPendMulti+0x110>
    1000:	e0bff017 	ldw	r2,-64(fp)
    1004:	10800003 	ldbu	r2,0(r2)
    1008:	10803fcc 	andi	r2,r2,255
    100c:	10c000a0 	cmpeqi	r3,r2,2
    1010:	1800091e 	bne	r3,zero,1038 <OSEventPendMulti+0xe4>
    1014:	10c000e0 	cmpeqi	r3,r2,3
    1018:	1800091e 	bne	r3,zero,1040 <OSEventPendMulti+0xec>
    101c:	10800060 	cmpeqi	r2,r2,1
    1020:	1000091e 	bne	r2,zero,1048 <OSEventPendMulti+0xf4>
    1024:	e0800217 	ldw	r2,8(fp)
    1028:	00c00044 	movi	r3,1
    102c:	10c00005 	stb	r3,0(r2)
    1030:	0005883a 	mov	r2,zero
    1034:	00014606 	br	1550 <OSEventPendMulti+0x5fc>
    1038:	0001883a 	nop
    103c:	00000306 	br	104c <OSEventPendMulti+0xf8>
    1040:	0001883a 	nop
    1044:	00000106 	br	104c <OSEventPendMulti+0xf8>
    1048:	0001883a 	nop
    104c:	e0bfef17 	ldw	r2,-68(fp)
    1050:	10800104 	addi	r2,r2,4
    1054:	e0bfef15 	stw	r2,-68(fp)
    1058:	e0bfef17 	ldw	r2,-68(fp)
    105c:	10800017 	ldw	r2,0(r2)
    1060:	e0bff015 	stw	r2,-64(fp)
    1064:	e0bff017 	ldw	r2,-64(fp)
    1068:	103fe51e 	bne	r2,zero,1000 <OSEventPendMulti+0xac>
    106c:	d0a6c203 	ldbu	r2,-25848(gp)
    1070:	10803fcc 	andi	r2,r2,255
    1074:	10000526 	beq	r2,zero,108c <OSEventPendMulti+0x138>
    1078:	e0800217 	ldw	r2,8(fp)
    107c:	00c00084 	movi	r3,2
    1080:	10c00005 	stb	r3,0(r2)
    1084:	0005883a 	mov	r2,zero
    1088:	00013106 	br	1550 <OSEventPendMulti+0x5fc>
    108c:	d0a6b403 	ldbu	r2,-25904(gp)
    1090:	10803fcc 	andi	r2,r2,255
    1094:	10000526 	beq	r2,zero,10ac <OSEventPendMulti+0x158>
    1098:	e0800217 	ldw	r2,8(fp)
    109c:	00c00344 	movi	r3,13
    10a0:	10c00005 	stb	r3,0(r2)
    10a4:	0005883a 	mov	r2,zero
    10a8:	00012906 	br	1550 <OSEventPendMulti+0x5fc>
    10ac:	0005303a 	rdctl	r2,status
    10b0:	e0bffb15 	stw	r2,-20(fp)
    10b4:	e0fffb17 	ldw	r3,-20(fp)
    10b8:	00bfff84 	movi	r2,-2
    10bc:	1884703a 	and	r2,r3,r2
    10c0:	1001703a 	wrctl	status,r2
    10c4:	e0bffb17 	ldw	r2,-20(fp)
    10c8:	e0bff315 	stw	r2,-52(fp)
    10cc:	e03ff105 	stb	zero,-60(fp)
    10d0:	e03ff18d 	sth	zero,-58(fp)
    10d4:	e03ff205 	stb	zero,-56(fp)
    10d8:	e0bffc17 	ldw	r2,-16(fp)
    10dc:	e0bfef15 	stw	r2,-68(fp)
    10e0:	e0bfef17 	ldw	r2,-68(fp)
    10e4:	10800017 	ldw	r2,0(r2)
    10e8:	e0bff015 	stw	r2,-64(fp)
    10ec:	00008106 	br	12f4 <OSEventPendMulti+0x3a0>
    10f0:	e0bff017 	ldw	r2,-64(fp)
    10f4:	10800003 	ldbu	r2,0(r2)
    10f8:	10803fcc 	andi	r2,r2,255
    10fc:	10c000a0 	cmpeqi	r3,r2,2
    1100:	18003c1e 	bne	r3,zero,11f4 <OSEventPendMulti+0x2a0>
    1104:	10c000e0 	cmpeqi	r3,r2,3
    1108:	1800031e 	bne	r3,zero,1118 <OSEventPendMulti+0x1c4>
    110c:	10800060 	cmpeqi	r2,r2,1
    1110:	10001e1e 	bne	r2,zero,118c <OSEventPendMulti+0x238>
    1114:	00006606 	br	12b0 <OSEventPendMulti+0x35c>
    1118:	e0bff017 	ldw	r2,-64(fp)
    111c:	1080020b 	ldhu	r2,8(r2)
    1120:	10bfffcc 	andi	r2,r2,65535
    1124:	10001526 	beq	r2,zero,117c <OSEventPendMulti+0x228>
    1128:	e0bff017 	ldw	r2,-64(fp)
    112c:	1080020b 	ldhu	r2,8(r2)
    1130:	10bfffc4 	addi	r2,r2,-1
    1134:	1007883a 	mov	r3,r2
    1138:	e0bff017 	ldw	r2,-64(fp)
    113c:	10c0020d 	sth	r3,8(r2)
    1140:	e0bffd17 	ldw	r2,-12(fp)
    1144:	10c00104 	addi	r3,r2,4
    1148:	e0fffd15 	stw	r3,-12(fp)
    114c:	e0fff017 	ldw	r3,-64(fp)
    1150:	10c00015 	stw	r3,0(r2)
    1154:	00800044 	movi	r2,1
    1158:	e0bff105 	stb	r2,-60(fp)
    115c:	e0bffe17 	ldw	r2,-8(fp)
    1160:	10c00104 	addi	r3,r2,4
    1164:	e0fffe15 	stw	r3,-8(fp)
    1168:	10000015 	stw	zero,0(r2)
    116c:	e0bff18b 	ldhu	r2,-58(fp)
    1170:	10800044 	addi	r2,r2,1
    1174:	e0bff18d 	sth	r2,-58(fp)
    1178:	00005806 	br	12dc <OSEventPendMulti+0x388>
    117c:	e0bff203 	ldbu	r2,-56(fp)
    1180:	10800054 	ori	r2,r2,1
    1184:	e0bff205 	stb	r2,-56(fp)
    1188:	00005406 	br	12dc <OSEventPendMulti+0x388>
    118c:	e0bff017 	ldw	r2,-64(fp)
    1190:	10800117 	ldw	r2,4(r2)
    1194:	10001326 	beq	r2,zero,11e4 <OSEventPendMulti+0x290>
    1198:	e0bffe17 	ldw	r2,-8(fp)
    119c:	10c00104 	addi	r3,r2,4
    11a0:	e0fffe15 	stw	r3,-8(fp)
    11a4:	e0fff017 	ldw	r3,-64(fp)
    11a8:	18c00117 	ldw	r3,4(r3)
    11ac:	10c00015 	stw	r3,0(r2)
    11b0:	e0bff017 	ldw	r2,-64(fp)
    11b4:	10000115 	stw	zero,4(r2)
    11b8:	e0bffd17 	ldw	r2,-12(fp)
    11bc:	10c00104 	addi	r3,r2,4
    11c0:	e0fffd15 	stw	r3,-12(fp)
    11c4:	e0fff017 	ldw	r3,-64(fp)
    11c8:	10c00015 	stw	r3,0(r2)
    11cc:	00800044 	movi	r2,1
    11d0:	e0bff105 	stb	r2,-60(fp)
    11d4:	e0bff18b 	ldhu	r2,-58(fp)
    11d8:	10800044 	addi	r2,r2,1
    11dc:	e0bff18d 	sth	r2,-58(fp)
    11e0:	00003e06 	br	12dc <OSEventPendMulti+0x388>
    11e4:	e0bff203 	ldbu	r2,-56(fp)
    11e8:	10800094 	ori	r2,r2,2
    11ec:	e0bff205 	stb	r2,-56(fp)
    11f0:	00003a06 	br	12dc <OSEventPendMulti+0x388>
    11f4:	e0bff017 	ldw	r2,-64(fp)
    11f8:	10800117 	ldw	r2,4(r2)
    11fc:	e0bff515 	stw	r2,-44(fp)
    1200:	e0bff517 	ldw	r2,-44(fp)
    1204:	1080058b 	ldhu	r2,22(r2)
    1208:	10bfffcc 	andi	r2,r2,65535
    120c:	10002426 	beq	r2,zero,12a0 <OSEventPendMulti+0x34c>
    1210:	e0bffe17 	ldw	r2,-8(fp)
    1214:	10c00104 	addi	r3,r2,4
    1218:	e0fffe15 	stw	r3,-8(fp)
    121c:	e0fff517 	ldw	r3,-44(fp)
    1220:	18c00417 	ldw	r3,16(r3)
    1224:	19400104 	addi	r5,r3,4
    1228:	e13ff517 	ldw	r4,-44(fp)
    122c:	21400415 	stw	r5,16(r4)
    1230:	18c00017 	ldw	r3,0(r3)
    1234:	10c00015 	stw	r3,0(r2)
    1238:	e0bff517 	ldw	r2,-44(fp)
    123c:	10c00417 	ldw	r3,16(r2)
    1240:	e0bff517 	ldw	r2,-44(fp)
    1244:	10800217 	ldw	r2,8(r2)
    1248:	1880041e 	bne	r3,r2,125c <OSEventPendMulti+0x308>
    124c:	e0bff517 	ldw	r2,-44(fp)
    1250:	10c00117 	ldw	r3,4(r2)
    1254:	e0bff517 	ldw	r2,-44(fp)
    1258:	10c00415 	stw	r3,16(r2)
    125c:	e0bff517 	ldw	r2,-44(fp)
    1260:	1080058b 	ldhu	r2,22(r2)
    1264:	10bfffc4 	addi	r2,r2,-1
    1268:	1007883a 	mov	r3,r2
    126c:	e0bff517 	ldw	r2,-44(fp)
    1270:	10c0058d 	sth	r3,22(r2)
    1274:	e0bffd17 	ldw	r2,-12(fp)
    1278:	10c00104 	addi	r3,r2,4
    127c:	e0fffd15 	stw	r3,-12(fp)
    1280:	e0fff017 	ldw	r3,-64(fp)
    1284:	10c00015 	stw	r3,0(r2)
    1288:	00800044 	movi	r2,1
    128c:	e0bff105 	stb	r2,-60(fp)
    1290:	e0bff18b 	ldhu	r2,-58(fp)
    1294:	10800044 	addi	r2,r2,1
    1298:	e0bff18d 	sth	r2,-58(fp)
    129c:	00000f06 	br	12dc <OSEventPendMulti+0x388>
    12a0:	e0bff203 	ldbu	r2,-56(fp)
    12a4:	10800114 	ori	r2,r2,4
    12a8:	e0bff205 	stb	r2,-56(fp)
    12ac:	00000b06 	br	12dc <OSEventPendMulti+0x388>
    12b0:	e0bff317 	ldw	r2,-52(fp)
    12b4:	e0bff415 	stw	r2,-48(fp)
    12b8:	e0bff417 	ldw	r2,-48(fp)
    12bc:	1001703a 	wrctl	status,r2
    12c0:	e0bffd17 	ldw	r2,-12(fp)
    12c4:	10000015 	stw	zero,0(r2)
    12c8:	e0800217 	ldw	r2,8(fp)
    12cc:	00c00044 	movi	r3,1
    12d0:	10c00005 	stb	r3,0(r2)
    12d4:	e0bff18b 	ldhu	r2,-58(fp)
    12d8:	00009d06 	br	1550 <OSEventPendMulti+0x5fc>
    12dc:	e0bfef17 	ldw	r2,-68(fp)
    12e0:	10800104 	addi	r2,r2,4
    12e4:	e0bfef15 	stw	r2,-68(fp)
    12e8:	e0bfef17 	ldw	r2,-68(fp)
    12ec:	10800017 	ldw	r2,0(r2)
    12f0:	e0bff015 	stw	r2,-64(fp)
    12f4:	e0bff017 	ldw	r2,-64(fp)
    12f8:	103f7d1e 	bne	r2,zero,10f0 <OSEventPendMulti+0x19c>
    12fc:	e0bff103 	ldbu	r2,-60(fp)
    1300:	10800058 	cmpnei	r2,r2,1
    1304:	10000a1e 	bne	r2,zero,1330 <OSEventPendMulti+0x3dc>
    1308:	e0bffd17 	ldw	r2,-12(fp)
    130c:	10000015 	stw	zero,0(r2)
    1310:	e0bff317 	ldw	r2,-52(fp)
    1314:	e0bff615 	stw	r2,-40(fp)
    1318:	e0bff617 	ldw	r2,-40(fp)
    131c:	1001703a 	wrctl	status,r2
    1320:	e0800217 	ldw	r2,8(fp)
    1324:	10000005 	stb	zero,0(r2)
    1328:	e0bff18b 	ldhu	r2,-58(fp)
    132c:	00008806 	br	1550 <OSEventPendMulti+0x5fc>
    1330:	d0a6c317 	ldw	r2,-25844(gp)
    1334:	d0e6c317 	ldw	r3,-25844(gp)
    1338:	19000c03 	ldbu	r4,48(r3)
    133c:	e0fff203 	ldbu	r3,-56(fp)
    1340:	20c6b03a 	or	r3,r4,r3
    1344:	1809883a 	mov	r4,r3
    1348:	00ffe004 	movi	r3,-128
    134c:	20c6b03a 	or	r3,r4,r3
    1350:	10c00c05 	stb	r3,48(r2)
    1354:	d0a6c317 	ldw	r2,-25844(gp)
    1358:	10000c45 	stb	zero,49(r2)
    135c:	d0a6c317 	ldw	r2,-25844(gp)
    1360:	e0ffff0b 	ldhu	r3,-4(fp)
    1364:	10c00b8d 	sth	r3,46(r2)
    1368:	e13ffc17 	ldw	r4,-16(fp)
    136c:	0001e900 	call	1e90 <OS_EventTaskWaitMulti>
    1370:	e0bff317 	ldw	r2,-52(fp)
    1374:	e0bff915 	stw	r2,-28(fp)
    1378:	e0bff917 	ldw	r2,-28(fp)
    137c:	1001703a 	wrctl	status,r2
    1380:	00026340 	call	2634 <OS_Sched>
    1384:	0005303a 	rdctl	r2,status
    1388:	e0bff715 	stw	r2,-36(fp)
    138c:	e0fff717 	ldw	r3,-36(fp)
    1390:	00bfff84 	movi	r2,-2
    1394:	1884703a 	and	r2,r3,r2
    1398:	1001703a 	wrctl	status,r2
    139c:	e0bff717 	ldw	r2,-36(fp)
    13a0:	e0bff315 	stw	r2,-52(fp)
    13a4:	d0a6c317 	ldw	r2,-25844(gp)
    13a8:	10800c43 	ldbu	r2,49(r2)
    13ac:	10803fcc 	andi	r2,r2,255
    13b0:	10000226 	beq	r2,zero,13bc <OSEventPendMulti+0x468>
    13b4:	108000a0 	cmpeqi	r2,r2,2
    13b8:	10001826 	beq	r2,zero,141c <OSEventPendMulti+0x4c8>
    13bc:	d0a6c317 	ldw	r2,-25844(gp)
    13c0:	10800717 	ldw	r2,28(r2)
    13c4:	e0bff015 	stw	r2,-64(fp)
    13c8:	e0bff017 	ldw	r2,-64(fp)
    13cc:	10000b26 	beq	r2,zero,13fc <OSEventPendMulti+0x4a8>
    13d0:	e0bffd17 	ldw	r2,-12(fp)
    13d4:	10c00104 	addi	r3,r2,4
    13d8:	e0fffd15 	stw	r3,-12(fp)
    13dc:	e0fff017 	ldw	r3,-64(fp)
    13e0:	10c00015 	stw	r3,0(r2)
    13e4:	e0bffd17 	ldw	r2,-12(fp)
    13e8:	10000015 	stw	zero,0(r2)
    13ec:	e0bff18b 	ldhu	r2,-58(fp)
    13f0:	10800044 	addi	r2,r2,1
    13f4:	e0bff18d 	sth	r2,-58(fp)
    13f8:	00000d06 	br	1430 <OSEventPendMulti+0x4dc>
    13fc:	d0a6c317 	ldw	r2,-25844(gp)
    1400:	00c00044 	movi	r3,1
    1404:	10c00c45 	stb	r3,49(r2)
    1408:	d0a6c317 	ldw	r2,-25844(gp)
    140c:	e17ffc17 	ldw	r5,-16(fp)
    1410:	1009883a 	mov	r4,r2
    1414:	00020980 	call	2098 <OS_EventTaskRemoveMulti>
    1418:	00000506 	br	1430 <OSEventPendMulti+0x4dc>
    141c:	d0a6c317 	ldw	r2,-25844(gp)
    1420:	e17ffc17 	ldw	r5,-16(fp)
    1424:	1009883a 	mov	r4,r2
    1428:	00020980 	call	2098 <OS_EventTaskRemoveMulti>
    142c:	0001883a 	nop
    1430:	d0a6c317 	ldw	r2,-25844(gp)
    1434:	10800c43 	ldbu	r2,49(r2)
    1438:	10803fcc 	andi	r2,r2,255
    143c:	10000326 	beq	r2,zero,144c <OSEventPendMulti+0x4f8>
    1440:	108000a0 	cmpeqi	r2,r2,2
    1444:	1000231e 	bne	r2,zero,14d4 <OSEventPendMulti+0x580>
    1448:	00002a06 	br	14f4 <OSEventPendMulti+0x5a0>
    144c:	e0bff017 	ldw	r2,-64(fp)
    1450:	10800003 	ldbu	r2,0(r2)
    1454:	10803fcc 	andi	r2,r2,255
    1458:	0080100e 	bge	zero,r2,149c <OSEventPendMulti+0x548>
    145c:	10c000d0 	cmplti	r3,r2,3
    1460:	1800071e 	bne	r3,zero,1480 <OSEventPendMulti+0x52c>
    1464:	108000e0 	cmpeqi	r2,r2,3
    1468:	10000c26 	beq	r2,zero,149c <OSEventPendMulti+0x548>
    146c:	e0bffe17 	ldw	r2,-8(fp)
    1470:	10c00104 	addi	r3,r2,4
    1474:	e0fffe15 	stw	r3,-8(fp)
    1478:	10000015 	stw	zero,0(r2)
    147c:	00001206 	br	14c8 <OSEventPendMulti+0x574>
    1480:	e0bffe17 	ldw	r2,-8(fp)
    1484:	10c00104 	addi	r3,r2,4
    1488:	e0fffe15 	stw	r3,-8(fp)
    148c:	d0e6c317 	ldw	r3,-25844(gp)
    1490:	18c00917 	ldw	r3,36(r3)
    1494:	10c00015 	stw	r3,0(r2)
    1498:	00000b06 	br	14c8 <OSEventPendMulti+0x574>
    149c:	e0bff317 	ldw	r2,-52(fp)
    14a0:	e0bff815 	stw	r2,-32(fp)
    14a4:	e0bff817 	ldw	r2,-32(fp)
    14a8:	1001703a 	wrctl	status,r2
    14ac:	e0bffd17 	ldw	r2,-12(fp)
    14b0:	10000015 	stw	zero,0(r2)
    14b4:	e0800217 	ldw	r2,8(fp)
    14b8:	00c00044 	movi	r3,1
    14bc:	10c00005 	stb	r3,0(r2)
    14c0:	e0bff18b 	ldhu	r2,-58(fp)
    14c4:	00002206 	br	1550 <OSEventPendMulti+0x5fc>
    14c8:	e0800217 	ldw	r2,8(fp)
    14cc:	10000005 	stb	zero,0(r2)
    14d0:	00001006 	br	1514 <OSEventPendMulti+0x5c0>
    14d4:	e0bffe17 	ldw	r2,-8(fp)
    14d8:	10c00104 	addi	r3,r2,4
    14dc:	e0fffe15 	stw	r3,-8(fp)
    14e0:	10000015 	stw	zero,0(r2)
    14e4:	e0800217 	ldw	r2,8(fp)
    14e8:	00c00384 	movi	r3,14
    14ec:	10c00005 	stb	r3,0(r2)
    14f0:	00000806 	br	1514 <OSEventPendMulti+0x5c0>
    14f4:	e0bffe17 	ldw	r2,-8(fp)
    14f8:	10c00104 	addi	r3,r2,4
    14fc:	e0fffe15 	stw	r3,-8(fp)
    1500:	10000015 	stw	zero,0(r2)
    1504:	e0800217 	ldw	r2,8(fp)
    1508:	00c00284 	movi	r3,10
    150c:	10c00005 	stb	r3,0(r2)
    1510:	0001883a 	nop
    1514:	d0a6c317 	ldw	r2,-25844(gp)
    1518:	10000c05 	stb	zero,48(r2)
    151c:	d0a6c317 	ldw	r2,-25844(gp)
    1520:	10000c45 	stb	zero,49(r2)
    1524:	d0a6c317 	ldw	r2,-25844(gp)
    1528:	10000715 	stw	zero,28(r2)
    152c:	d0a6c317 	ldw	r2,-25844(gp)
    1530:	10000815 	stw	zero,32(r2)
    1534:	d0a6c317 	ldw	r2,-25844(gp)
    1538:	10000915 	stw	zero,36(r2)
    153c:	e0bff317 	ldw	r2,-52(fp)
    1540:	e0bffa15 	stw	r2,-24(fp)
    1544:	e0bffa17 	ldw	r2,-24(fp)
    1548:	1001703a 	wrctl	status,r2
    154c:	e0bff18b 	ldhu	r2,-58(fp)
    1550:	e037883a 	mov	sp,fp
    1554:	dfc00117 	ldw	ra,4(sp)
    1558:	df000017 	ldw	fp,0(sp)
    155c:	dec00204 	addi	sp,sp,8
    1560:	f800283a 	ret

00001564 <OSInit>:
    1564:	defffe04 	addi	sp,sp,-8
    1568:	dfc00115 	stw	ra,4(sp)
    156c:	df000015 	stw	fp,0(sp)
    1570:	d839883a 	mov	fp,sp
    1574:	000be7c0 	call	be7c <OSInitHookBegin>
    1578:	00022e00 	call	22e0 <OS_InitMisc>
    157c:	00023280 	call	2328 <OS_InitRdyList>
    1580:	00024940 	call	2494 <OS_InitTCBList>
    1584:	00022000 	call	2200 <OS_InitEventList>
    1588:	00043440 	call	4344 <OS_FlagInit>
    158c:	0004c440 	call	4c44 <OS_MemInit>
    1590:	0005d6c0 	call	5d6c <OS_QInit>
    1594:	00023940 	call	2394 <OS_InitTaskIdle>
    1598:	00024140 	call	2414 <OS_InitTaskStat>
    159c:	000be9c0 	call	be9c <OSInitHookEnd>
    15a0:	0002d180 	call	2d18 <OSDebugInit>
    15a4:	0001883a 	nop
    15a8:	e037883a 	mov	sp,fp
    15ac:	dfc00117 	ldw	ra,4(sp)
    15b0:	df000017 	ldw	fp,0(sp)
    15b4:	dec00204 	addi	sp,sp,8
    15b8:	f800283a 	ret

000015bc <OSIntEnter>:
    15bc:	deffff04 	addi	sp,sp,-4
    15c0:	df000015 	stw	fp,0(sp)
    15c4:	d839883a 	mov	fp,sp
    15c8:	d0a6b443 	ldbu	r2,-25903(gp)
    15cc:	10803fcc 	andi	r2,r2,255
    15d0:	10800058 	cmpnei	r2,r2,1
    15d4:	1000071e 	bne	r2,zero,15f4 <OSIntEnter+0x38>
    15d8:	d0a6c203 	ldbu	r2,-25848(gp)
    15dc:	10803fcc 	andi	r2,r2,255
    15e0:	10803fe0 	cmpeqi	r2,r2,255
    15e4:	1000031e 	bne	r2,zero,15f4 <OSIntEnter+0x38>
    15e8:	d0a6c203 	ldbu	r2,-25848(gp)
    15ec:	10800044 	addi	r2,r2,1
    15f0:	d0a6c205 	stb	r2,-25848(gp)
    15f4:	0001883a 	nop
    15f8:	e037883a 	mov	sp,fp
    15fc:	df000017 	ldw	fp,0(sp)
    1600:	dec00104 	addi	sp,sp,4
    1604:	f800283a 	ret

00001608 <OSIntExit>:
    1608:	defffb04 	addi	sp,sp,-20
    160c:	dfc00415 	stw	ra,16(sp)
    1610:	df000315 	stw	fp,12(sp)
    1614:	df000304 	addi	fp,sp,12
    1618:	e03ffd15 	stw	zero,-12(fp)
    161c:	d0a6b443 	ldbu	r2,-25903(gp)
    1620:	10803fcc 	andi	r2,r2,255
    1624:	10800058 	cmpnei	r2,r2,1
    1628:	10002f1e 	bne	r2,zero,16e8 <OSIntExit+0xe0>
    162c:	0005303a 	rdctl	r2,status
    1630:	e0bfff15 	stw	r2,-4(fp)
    1634:	e0ffff17 	ldw	r3,-4(fp)
    1638:	00bfff84 	movi	r2,-2
    163c:	1884703a 	and	r2,r3,r2
    1640:	1001703a 	wrctl	status,r2
    1644:	e0bfff17 	ldw	r2,-4(fp)
    1648:	e0bffd15 	stw	r2,-12(fp)
    164c:	d0a6c203 	ldbu	r2,-25848(gp)
    1650:	10803fcc 	andi	r2,r2,255
    1654:	10000326 	beq	r2,zero,1664 <OSIntExit+0x5c>
    1658:	d0a6c203 	ldbu	r2,-25848(gp)
    165c:	10bfffc4 	addi	r2,r2,-1
    1660:	d0a6c205 	stb	r2,-25848(gp)
    1664:	d0a6c203 	ldbu	r2,-25848(gp)
    1668:	10803fcc 	andi	r2,r2,255
    166c:	10001a1e 	bne	r2,zero,16d8 <OSIntExit+0xd0>
    1670:	d0a6b403 	ldbu	r2,-25904(gp)
    1674:	10803fcc 	andi	r2,r2,255
    1678:	1000171e 	bne	r2,zero,16d8 <OSIntExit+0xd0>
    167c:	00027040 	call	2704 <OS_SchedNew>
    1680:	d0e6b603 	ldbu	r3,-25896(gp)
    1684:	d0a6b643 	ldbu	r2,-25895(gp)
    1688:	18c03fcc 	andi	r3,r3,255
    168c:	10803fcc 	andi	r2,r2,255
    1690:	18801126 	beq	r3,r2,16d8 <OSIntExit+0xd0>
    1694:	d0a6b603 	ldbu	r2,-25896(gp)
    1698:	10c03fcc 	andi	r3,r2,255
    169c:	00800074 	movhi	r2,1
    16a0:	109c6604 	addi	r2,r2,29080
    16a4:	18c7883a 	add	r3,r3,r3
    16a8:	18c7883a 	add	r3,r3,r3
    16ac:	10c5883a 	add	r2,r2,r3
    16b0:	10800017 	ldw	r2,0(r2)
    16b4:	d0a6be15 	stw	r2,-25864(gp)
    16b8:	d0a6be17 	ldw	r2,-25864(gp)
    16bc:	10c00e17 	ldw	r3,56(r2)
    16c0:	18c00044 	addi	r3,r3,1
    16c4:	10c00e15 	stw	r3,56(r2)
    16c8:	d0a6b917 	ldw	r2,-25884(gp)
    16cc:	10800044 	addi	r2,r2,1
    16d0:	d0a6b915 	stw	r2,-25884(gp)
    16d4:	000bba80 	call	bba8 <OSCtxSw>
    16d8:	e0bffd17 	ldw	r2,-12(fp)
    16dc:	e0bffe15 	stw	r2,-8(fp)
    16e0:	e0bffe17 	ldw	r2,-8(fp)
    16e4:	1001703a 	wrctl	status,r2
    16e8:	0001883a 	nop
    16ec:	e037883a 	mov	sp,fp
    16f0:	dfc00117 	ldw	ra,4(sp)
    16f4:	df000017 	ldw	fp,0(sp)
    16f8:	dec00204 	addi	sp,sp,8
    16fc:	f800283a 	ret

00001700 <OSSchedLock>:
    1700:	defffc04 	addi	sp,sp,-16
    1704:	df000315 	stw	fp,12(sp)
    1708:	df000304 	addi	fp,sp,12
    170c:	e03ffd15 	stw	zero,-12(fp)
    1710:	d0a6b443 	ldbu	r2,-25903(gp)
    1714:	10803fcc 	andi	r2,r2,255
    1718:	10800058 	cmpnei	r2,r2,1
    171c:	1000161e 	bne	r2,zero,1778 <OSSchedLock+0x78>
    1720:	0005303a 	rdctl	r2,status
    1724:	e0bfff15 	stw	r2,-4(fp)
    1728:	e0ffff17 	ldw	r3,-4(fp)
    172c:	00bfff84 	movi	r2,-2
    1730:	1884703a 	and	r2,r3,r2
    1734:	1001703a 	wrctl	status,r2
    1738:	e0bfff17 	ldw	r2,-4(fp)
    173c:	e0bffd15 	stw	r2,-12(fp)
    1740:	d0a6c203 	ldbu	r2,-25848(gp)
    1744:	10803fcc 	andi	r2,r2,255
    1748:	1000071e 	bne	r2,zero,1768 <OSSchedLock+0x68>
    174c:	d0a6b403 	ldbu	r2,-25904(gp)
    1750:	10803fcc 	andi	r2,r2,255
    1754:	10803fe0 	cmpeqi	r2,r2,255
    1758:	1000031e 	bne	r2,zero,1768 <OSSchedLock+0x68>
    175c:	d0a6b403 	ldbu	r2,-25904(gp)
    1760:	10800044 	addi	r2,r2,1
    1764:	d0a6b405 	stb	r2,-25904(gp)
    1768:	e0bffd17 	ldw	r2,-12(fp)
    176c:	e0bffe15 	stw	r2,-8(fp)
    1770:	e0bffe17 	ldw	r2,-8(fp)
    1774:	1001703a 	wrctl	status,r2
    1778:	0001883a 	nop
    177c:	e037883a 	mov	sp,fp
    1780:	df000017 	ldw	fp,0(sp)
    1784:	dec00104 	addi	sp,sp,4
    1788:	f800283a 	ret

0000178c <OSSchedUnlock>:
    178c:	defff804 	addi	sp,sp,-32
    1790:	dfc00715 	stw	ra,28(sp)
    1794:	df000615 	stw	fp,24(sp)
    1798:	df000604 	addi	fp,sp,24
    179c:	e03ffa15 	stw	zero,-24(fp)
    17a0:	d0a6b443 	ldbu	r2,-25903(gp)
    17a4:	10803fcc 	andi	r2,r2,255
    17a8:	10800058 	cmpnei	r2,r2,1
    17ac:	1000281e 	bne	r2,zero,1850 <OSSchedUnlock+0xc4>
    17b0:	0005303a 	rdctl	r2,status
    17b4:	e0bfff15 	stw	r2,-4(fp)
    17b8:	e0ffff17 	ldw	r3,-4(fp)
    17bc:	00bfff84 	movi	r2,-2
    17c0:	1884703a 	and	r2,r3,r2
    17c4:	1001703a 	wrctl	status,r2
    17c8:	e0bfff17 	ldw	r2,-4(fp)
    17cc:	e0bffa15 	stw	r2,-24(fp)
    17d0:	d0a6b403 	ldbu	r2,-25904(gp)
    17d4:	10803fcc 	andi	r2,r2,255
    17d8:	10001926 	beq	r2,zero,1840 <OSSchedUnlock+0xb4>
    17dc:	d0a6b403 	ldbu	r2,-25904(gp)
    17e0:	10bfffc4 	addi	r2,r2,-1
    17e4:	d0a6b405 	stb	r2,-25904(gp)
    17e8:	d0a6b403 	ldbu	r2,-25904(gp)
    17ec:	10803fcc 	andi	r2,r2,255
    17f0:	10000e1e 	bne	r2,zero,182c <OSSchedUnlock+0xa0>
    17f4:	d0a6c203 	ldbu	r2,-25848(gp)
    17f8:	10803fcc 	andi	r2,r2,255
    17fc:	1000061e 	bne	r2,zero,1818 <OSSchedUnlock+0x8c>
    1800:	e0bffa17 	ldw	r2,-24(fp)
    1804:	e0bffb15 	stw	r2,-20(fp)
    1808:	e0bffb17 	ldw	r2,-20(fp)
    180c:	1001703a 	wrctl	status,r2
    1810:	00026340 	call	2634 <OS_Sched>
    1814:	00000e06 	br	1850 <OSSchedUnlock+0xc4>
    1818:	e0bffa17 	ldw	r2,-24(fp)
    181c:	e0bffc15 	stw	r2,-16(fp)
    1820:	e0bffc17 	ldw	r2,-16(fp)
    1824:	1001703a 	wrctl	status,r2
    1828:	00000906 	br	1850 <OSSchedUnlock+0xc4>
    182c:	e0bffa17 	ldw	r2,-24(fp)
    1830:	e0bffd15 	stw	r2,-12(fp)
    1834:	e0bffd17 	ldw	r2,-12(fp)
    1838:	1001703a 	wrctl	status,r2
    183c:	00000406 	br	1850 <OSSchedUnlock+0xc4>
    1840:	e0bffa17 	ldw	r2,-24(fp)
    1844:	e0bffe15 	stw	r2,-8(fp)
    1848:	e0bffe17 	ldw	r2,-8(fp)
    184c:	1001703a 	wrctl	status,r2
    1850:	0001883a 	nop
    1854:	e037883a 	mov	sp,fp
    1858:	dfc00117 	ldw	ra,4(sp)
    185c:	df000017 	ldw	fp,0(sp)
    1860:	dec00204 	addi	sp,sp,8
    1864:	f800283a 	ret

00001868 <OSStart>:
    1868:	defffe04 	addi	sp,sp,-8
    186c:	dfc00115 	stw	ra,4(sp)
    1870:	df000015 	stw	fp,0(sp)
    1874:	d839883a 	mov	fp,sp
    1878:	d0a6b443 	ldbu	r2,-25903(gp)
    187c:	10803fcc 	andi	r2,r2,255
    1880:	10000f1e 	bne	r2,zero,18c0 <OSStart+0x58>
    1884:	00027040 	call	2704 <OS_SchedNew>
    1888:	d0a6b603 	ldbu	r2,-25896(gp)
    188c:	d0a6b645 	stb	r2,-25895(gp)
    1890:	d0a6b603 	ldbu	r2,-25896(gp)
    1894:	10c03fcc 	andi	r3,r2,255
    1898:	00800074 	movhi	r2,1
    189c:	109c6604 	addi	r2,r2,29080
    18a0:	18c7883a 	add	r3,r3,r3
    18a4:	18c7883a 	add	r3,r3,r3
    18a8:	10c5883a 	add	r2,r2,r3
    18ac:	10800017 	ldw	r2,0(r2)
    18b0:	d0a6be15 	stw	r2,-25864(gp)
    18b4:	d0a6be17 	ldw	r2,-25864(gp)
    18b8:	d0a6c315 	stw	r2,-25844(gp)
    18bc:	000bc340 	call	bc34 <OSStartHighRdy>
    18c0:	0001883a 	nop
    18c4:	e037883a 	mov	sp,fp
    18c8:	dfc00117 	ldw	ra,4(sp)
    18cc:	df000017 	ldw	fp,0(sp)
    18d0:	dec00204 	addi	sp,sp,8
    18d4:	f800283a 	ret

000018d8 <OSStatInit>:
    18d8:	defff904 	addi	sp,sp,-28
    18dc:	dfc00615 	stw	ra,24(sp)
    18e0:	df000515 	stw	fp,20(sp)
    18e4:	df000504 	addi	fp,sp,20
    18e8:	e03ffb15 	stw	zero,-20(fp)
    18ec:	01000084 	movi	r4,2
    18f0:	0007fe00 	call	7fe0 <OSTimeDly>
    18f4:	0005303a 	rdctl	r2,status
    18f8:	e0bffc15 	stw	r2,-16(fp)
    18fc:	e0fffc17 	ldw	r3,-16(fp)
    1900:	00bfff84 	movi	r2,-2
    1904:	1884703a 	and	r2,r3,r2
    1908:	1001703a 	wrctl	status,r2
    190c:	e0bffc17 	ldw	r2,-16(fp)
    1910:	e0bffb15 	stw	r2,-20(fp)
    1914:	d026b515 	stw	zero,-25900(gp)
    1918:	e0bffb17 	ldw	r2,-20(fp)
    191c:	e0bffd15 	stw	r2,-12(fp)
    1920:	e0bffd17 	ldw	r2,-12(fp)
    1924:	1001703a 	wrctl	status,r2
    1928:	0009883a 	mov	r4,zero
    192c:	0007fe00 	call	7fe0 <OSTimeDly>
    1930:	0005303a 	rdctl	r2,status
    1934:	e0bffe15 	stw	r2,-8(fp)
    1938:	e0fffe17 	ldw	r3,-8(fp)
    193c:	00bfff84 	movi	r2,-2
    1940:	1884703a 	and	r2,r3,r2
    1944:	1001703a 	wrctl	status,r2
    1948:	e0bffe17 	ldw	r2,-8(fp)
    194c:	e0bffb15 	stw	r2,-20(fp)
    1950:	d0a6b517 	ldw	r2,-25900(gp)
    1954:	d0a6ba15 	stw	r2,-25880(gp)
    1958:	00800044 	movi	r2,1
    195c:	d0a6c605 	stb	r2,-25832(gp)
    1960:	e0bffb17 	ldw	r2,-20(fp)
    1964:	e0bfff15 	stw	r2,-4(fp)
    1968:	e0bfff17 	ldw	r2,-4(fp)
    196c:	1001703a 	wrctl	status,r2
    1970:	0001883a 	nop
    1974:	e037883a 	mov	sp,fp
    1978:	dfc00117 	ldw	ra,4(sp)
    197c:	df000017 	ldw	fp,0(sp)
    1980:	dec00204 	addi	sp,sp,8
    1984:	f800283a 	ret

00001988 <OSTimeTick>:
    1988:	defff704 	addi	sp,sp,-36
    198c:	dfc00815 	stw	ra,32(sp)
    1990:	df000715 	stw	fp,28(sp)
    1994:	df000704 	addi	fp,sp,28
    1998:	e03ffb15 	stw	zero,-20(fp)
    199c:	000be5c0 	call	be5c <OSTimeTickHook>
    19a0:	0005303a 	rdctl	r2,status
    19a4:	e0bffd15 	stw	r2,-12(fp)
    19a8:	e0fffd17 	ldw	r3,-12(fp)
    19ac:	00bfff84 	movi	r2,-2
    19b0:	1884703a 	and	r2,r3,r2
    19b4:	1001703a 	wrctl	status,r2
    19b8:	e0bffd17 	ldw	r2,-12(fp)
    19bc:	e0bffb15 	stw	r2,-20(fp)
    19c0:	d0a6c417 	ldw	r2,-25840(gp)
    19c4:	10800044 	addi	r2,r2,1
    19c8:	d0a6c415 	stw	r2,-25840(gp)
    19cc:	e0bffb17 	ldw	r2,-20(fp)
    19d0:	e0bfff15 	stw	r2,-4(fp)
    19d4:	e0bfff17 	ldw	r2,-4(fp)
    19d8:	1001703a 	wrctl	status,r2
    19dc:	d0a6b443 	ldbu	r2,-25903(gp)
    19e0:	10803fcc 	andi	r2,r2,255
    19e4:	10800058 	cmpnei	r2,r2,1
    19e8:	10006a1e 	bne	r2,zero,1b94 <OSTimeTick+0x20c>
    19ec:	d0a6b803 	ldbu	r2,-25888(gp)
    19f0:	10803fcc 	andi	r2,r2,255
    19f4:	10c00060 	cmpeqi	r3,r2,1
    19f8:	1800061e 	bne	r3,zero,1a14 <OSTimeTick+0x8c>
    19fc:	10c000a0 	cmpeqi	r3,r2,2
    1a00:	1800061e 	bne	r3,zero,1a1c <OSTimeTick+0x94>
    1a04:	10000a1e 	bne	r2,zero,1a30 <OSTimeTick+0xa8>
    1a08:	00800044 	movi	r2,1
    1a0c:	e0bffa05 	stb	r2,-24(fp)
    1a10:	00000b06 	br	1a40 <OSTimeTick+0xb8>
    1a14:	e03ffa05 	stb	zero,-24(fp)
    1a18:	00000906 	br	1a40 <OSTimeTick+0xb8>
    1a1c:	00800044 	movi	r2,1
    1a20:	e0bffa05 	stb	r2,-24(fp)
    1a24:	00800044 	movi	r2,1
    1a28:	d0a6b805 	stb	r2,-25888(gp)
    1a2c:	00000406 	br	1a40 <OSTimeTick+0xb8>
    1a30:	00800044 	movi	r2,1
    1a34:	e0bffa05 	stb	r2,-24(fp)
    1a38:	d026b805 	stb	zero,-25888(gp)
    1a3c:	0001883a 	nop
    1a40:	e0bffa03 	ldbu	r2,-24(fp)
    1a44:	10005226 	beq	r2,zero,1b90 <OSTimeTick+0x208>
    1a48:	d0a6b717 	ldw	r2,-25892(gp)
    1a4c:	e0bff915 	stw	r2,-28(fp)
    1a50:	00004906 	br	1b78 <OSTimeTick+0x1f0>
    1a54:	0005303a 	rdctl	r2,status
    1a58:	e0bffc15 	stw	r2,-16(fp)
    1a5c:	e0fffc17 	ldw	r3,-16(fp)
    1a60:	00bfff84 	movi	r2,-2
    1a64:	1884703a 	and	r2,r3,r2
    1a68:	1001703a 	wrctl	status,r2
    1a6c:	e0bffc17 	ldw	r2,-16(fp)
    1a70:	e0bffb15 	stw	r2,-20(fp)
    1a74:	e0bff917 	ldw	r2,-28(fp)
    1a78:	10800b8b 	ldhu	r2,46(r2)
    1a7c:	10bfffcc 	andi	r2,r2,65535
    1a80:	10003626 	beq	r2,zero,1b5c <OSTimeTick+0x1d4>
    1a84:	e0bff917 	ldw	r2,-28(fp)
    1a88:	10800b8b 	ldhu	r2,46(r2)
    1a8c:	10bfffc4 	addi	r2,r2,-1
    1a90:	1007883a 	mov	r3,r2
    1a94:	e0bff917 	ldw	r2,-28(fp)
    1a98:	10c00b8d 	sth	r3,46(r2)
    1a9c:	e0bff917 	ldw	r2,-28(fp)
    1aa0:	10800b8b 	ldhu	r2,46(r2)
    1aa4:	10bfffcc 	andi	r2,r2,65535
    1aa8:	10002c1e 	bne	r2,zero,1b5c <OSTimeTick+0x1d4>
    1aac:	e0bff917 	ldw	r2,-28(fp)
    1ab0:	10800c03 	ldbu	r2,48(r2)
    1ab4:	10803fcc 	andi	r2,r2,255
    1ab8:	10800dcc 	andi	r2,r2,55
    1abc:	10000b26 	beq	r2,zero,1aec <OSTimeTick+0x164>
    1ac0:	e0bff917 	ldw	r2,-28(fp)
    1ac4:	10c00c03 	ldbu	r3,48(r2)
    1ac8:	00bff204 	movi	r2,-56
    1acc:	1884703a 	and	r2,r3,r2
    1ad0:	1007883a 	mov	r3,r2
    1ad4:	e0bff917 	ldw	r2,-28(fp)
    1ad8:	10c00c05 	stb	r3,48(r2)
    1adc:	e0bff917 	ldw	r2,-28(fp)
    1ae0:	00c00044 	movi	r3,1
    1ae4:	10c00c45 	stb	r3,49(r2)
    1ae8:	00000206 	br	1af4 <OSTimeTick+0x16c>
    1aec:	e0bff917 	ldw	r2,-28(fp)
    1af0:	10000c45 	stb	zero,49(r2)
    1af4:	e0bff917 	ldw	r2,-28(fp)
    1af8:	10800c03 	ldbu	r2,48(r2)
    1afc:	10803fcc 	andi	r2,r2,255
    1b00:	1080020c 	andi	r2,r2,8
    1b04:	1000151e 	bne	r2,zero,1b5c <OSTimeTick+0x1d4>
    1b08:	e0bff917 	ldw	r2,-28(fp)
    1b0c:	10c00d83 	ldbu	r3,54(r2)
    1b10:	d0a6c003 	ldbu	r2,-25856(gp)
    1b14:	1884b03a 	or	r2,r3,r2
    1b18:	d0a6c005 	stb	r2,-25856(gp)
    1b1c:	e0bff917 	ldw	r2,-28(fp)
    1b20:	10800d03 	ldbu	r2,52(r2)
    1b24:	10c03fcc 	andi	r3,r2,255
    1b28:	e0bff917 	ldw	r2,-28(fp)
    1b2c:	10800d03 	ldbu	r2,52(r2)
    1b30:	11003fcc 	andi	r4,r2,255
    1b34:	d0a6c044 	addi	r2,gp,-25855
    1b38:	2085883a 	add	r2,r4,r2
    1b3c:	11000003 	ldbu	r4,0(r2)
    1b40:	e0bff917 	ldw	r2,-28(fp)
    1b44:	10800d43 	ldbu	r2,53(r2)
    1b48:	2084b03a 	or	r2,r4,r2
    1b4c:	1009883a 	mov	r4,r2
    1b50:	d0a6c044 	addi	r2,gp,-25855
    1b54:	1885883a 	add	r2,r3,r2
    1b58:	11000005 	stb	r4,0(r2)
    1b5c:	e0bff917 	ldw	r2,-28(fp)
    1b60:	10800517 	ldw	r2,20(r2)
    1b64:	e0bff915 	stw	r2,-28(fp)
    1b68:	e0bffb17 	ldw	r2,-20(fp)
    1b6c:	e0bffe15 	stw	r2,-8(fp)
    1b70:	e0bffe17 	ldw	r2,-8(fp)
    1b74:	1001703a 	wrctl	status,r2
    1b78:	e0bff917 	ldw	r2,-28(fp)
    1b7c:	10800c83 	ldbu	r2,50(r2)
    1b80:	10803fcc 	andi	r2,r2,255
    1b84:	10800518 	cmpnei	r2,r2,20
    1b88:	103fb21e 	bne	r2,zero,1a54 <OSTimeTick+0xcc>
    1b8c:	00000106 	br	1b94 <OSTimeTick+0x20c>
    1b90:	0001883a 	nop
    1b94:	e037883a 	mov	sp,fp
    1b98:	dfc00117 	ldw	ra,4(sp)
    1b9c:	df000017 	ldw	fp,0(sp)
    1ba0:	dec00204 	addi	sp,sp,8
    1ba4:	f800283a 	ret

00001ba8 <OSVersion>:
    1ba8:	deffff04 	addi	sp,sp,-4
    1bac:	df000015 	stw	fp,0(sp)
    1bb0:	d839883a 	mov	fp,sp
    1bb4:	00804784 	movi	r2,286
    1bb8:	e037883a 	mov	sp,fp
    1bbc:	df000017 	ldw	fp,0(sp)
    1bc0:	dec00104 	addi	sp,sp,4
    1bc4:	f800283a 	ret

00001bc8 <OS_Dummy>:
    1bc8:	deffff04 	addi	sp,sp,-4
    1bcc:	df000015 	stw	fp,0(sp)
    1bd0:	d839883a 	mov	fp,sp
    1bd4:	0001883a 	nop
    1bd8:	e037883a 	mov	sp,fp
    1bdc:	df000017 	ldw	fp,0(sp)
    1be0:	dec00104 	addi	sp,sp,4
    1be4:	f800283a 	ret

00001be8 <OS_EventTaskRdy>:
    1be8:	defff804 	addi	sp,sp,-32
    1bec:	dfc00715 	stw	ra,28(sp)
    1bf0:	df000615 	stw	fp,24(sp)
    1bf4:	df000604 	addi	fp,sp,24
    1bf8:	e13ffc15 	stw	r4,-16(fp)
    1bfc:	e17ffd15 	stw	r5,-12(fp)
    1c00:	3007883a 	mov	r3,r6
    1c04:	3805883a 	mov	r2,r7
    1c08:	e0fffe05 	stb	r3,-8(fp)
    1c0c:	e0bfff05 	stb	r2,-4(fp)
    1c10:	e0bffc17 	ldw	r2,-16(fp)
    1c14:	10800283 	ldbu	r2,10(r2)
    1c18:	10c03fcc 	andi	r3,r2,255
    1c1c:	00800074 	movhi	r2,1
    1c20:	10b22f04 	addi	r2,r2,-14148
    1c24:	10c5883a 	add	r2,r2,r3
    1c28:	10800003 	ldbu	r2,0(r2)
    1c2c:	e0bffa05 	stb	r2,-24(fp)
    1c30:	e0bffa03 	ldbu	r2,-24(fp)
    1c34:	e0fffc17 	ldw	r3,-16(fp)
    1c38:	1885883a 	add	r2,r3,r2
    1c3c:	108002c4 	addi	r2,r2,11
    1c40:	10800003 	ldbu	r2,0(r2)
    1c44:	10c03fcc 	andi	r3,r2,255
    1c48:	00800074 	movhi	r2,1
    1c4c:	10b22f04 	addi	r2,r2,-14148
    1c50:	10c5883a 	add	r2,r2,r3
    1c54:	10800003 	ldbu	r2,0(r2)
    1c58:	e0bffa45 	stb	r2,-23(fp)
    1c5c:	e0bffa03 	ldbu	r2,-24(fp)
    1c60:	100490fa 	slli	r2,r2,3
    1c64:	1007883a 	mov	r3,r2
    1c68:	e0bffa43 	ldbu	r2,-23(fp)
    1c6c:	1885883a 	add	r2,r3,r2
    1c70:	e0bffa85 	stb	r2,-22(fp)
    1c74:	e0fffa83 	ldbu	r3,-22(fp)
    1c78:	00800074 	movhi	r2,1
    1c7c:	109c6604 	addi	r2,r2,29080
    1c80:	18c7883a 	add	r3,r3,r3
    1c84:	18c7883a 	add	r3,r3,r3
    1c88:	10c5883a 	add	r2,r2,r3
    1c8c:	10800017 	ldw	r2,0(r2)
    1c90:	e0bffb15 	stw	r2,-20(fp)
    1c94:	e0bffb17 	ldw	r2,-20(fp)
    1c98:	10000b8d 	sth	zero,46(r2)
    1c9c:	e0bffb17 	ldw	r2,-20(fp)
    1ca0:	e0fffd17 	ldw	r3,-12(fp)
    1ca4:	10c00915 	stw	r3,36(r2)
    1ca8:	e0bffb17 	ldw	r2,-20(fp)
    1cac:	10800c03 	ldbu	r2,48(r2)
    1cb0:	1007883a 	mov	r3,r2
    1cb4:	e0bffe03 	ldbu	r2,-8(fp)
    1cb8:	0084303a 	nor	r2,zero,r2
    1cbc:	1884703a 	and	r2,r3,r2
    1cc0:	1007883a 	mov	r3,r2
    1cc4:	e0bffb17 	ldw	r2,-20(fp)
    1cc8:	10c00c05 	stb	r3,48(r2)
    1ccc:	e0bffb17 	ldw	r2,-20(fp)
    1cd0:	e0ffff03 	ldbu	r3,-4(fp)
    1cd4:	10c00c45 	stb	r3,49(r2)
    1cd8:	e0bffb17 	ldw	r2,-20(fp)
    1cdc:	10800c03 	ldbu	r2,48(r2)
    1ce0:	10803fcc 	andi	r2,r2,255
    1ce4:	1080020c 	andi	r2,r2,8
    1ce8:	1000111e 	bne	r2,zero,1d30 <OS_EventTaskRdy+0x148>
    1cec:	e0bffb17 	ldw	r2,-20(fp)
    1cf0:	10c00d83 	ldbu	r3,54(r2)
    1cf4:	d0a6c003 	ldbu	r2,-25856(gp)
    1cf8:	1884b03a 	or	r2,r3,r2
    1cfc:	d0a6c005 	stb	r2,-25856(gp)
    1d00:	e0fffa03 	ldbu	r3,-24(fp)
    1d04:	e13ffa03 	ldbu	r4,-24(fp)
    1d08:	d0a6c044 	addi	r2,gp,-25855
    1d0c:	2085883a 	add	r2,r4,r2
    1d10:	11000003 	ldbu	r4,0(r2)
    1d14:	e0bffb17 	ldw	r2,-20(fp)
    1d18:	10800d43 	ldbu	r2,53(r2)
    1d1c:	2084b03a 	or	r2,r4,r2
    1d20:	1009883a 	mov	r4,r2
    1d24:	d0a6c044 	addi	r2,gp,-25855
    1d28:	1885883a 	add	r2,r3,r2
    1d2c:	11000005 	stb	r4,0(r2)
    1d30:	e17ffc17 	ldw	r5,-16(fp)
    1d34:	e13ffb17 	ldw	r4,-20(fp)
    1d38:	0001fe00 	call	1fe0 <OS_EventTaskRemove>
    1d3c:	e0bffb17 	ldw	r2,-20(fp)
    1d40:	10800817 	ldw	r2,32(r2)
    1d44:	10000826 	beq	r2,zero,1d68 <OS_EventTaskRdy+0x180>
    1d48:	e0bffb17 	ldw	r2,-20(fp)
    1d4c:	10800817 	ldw	r2,32(r2)
    1d50:	100b883a 	mov	r5,r2
    1d54:	e13ffb17 	ldw	r4,-20(fp)
    1d58:	00020980 	call	2098 <OS_EventTaskRemoveMulti>
    1d5c:	e0bffb17 	ldw	r2,-20(fp)
    1d60:	e0fffc17 	ldw	r3,-16(fp)
    1d64:	10c00715 	stw	r3,28(r2)
    1d68:	e0bffa83 	ldbu	r2,-22(fp)
    1d6c:	e037883a 	mov	sp,fp
    1d70:	dfc00117 	ldw	ra,4(sp)
    1d74:	df000017 	ldw	fp,0(sp)
    1d78:	dec00204 	addi	sp,sp,8
    1d7c:	f800283a 	ret

00001d80 <OS_EventTaskWait>:
    1d80:	defffd04 	addi	sp,sp,-12
    1d84:	df000215 	stw	fp,8(sp)
    1d88:	df000204 	addi	fp,sp,8
    1d8c:	e13fff15 	stw	r4,-4(fp)
    1d90:	d0a6c317 	ldw	r2,-25844(gp)
    1d94:	e0ffff17 	ldw	r3,-4(fp)
    1d98:	10c00715 	stw	r3,28(r2)
    1d9c:	d0a6c317 	ldw	r2,-25844(gp)
    1da0:	10800d03 	ldbu	r2,52(r2)
    1da4:	10803fcc 	andi	r2,r2,255
    1da8:	d0e6c317 	ldw	r3,-25844(gp)
    1dac:	18c00d03 	ldbu	r3,52(r3)
    1db0:	18c03fcc 	andi	r3,r3,255
    1db4:	e13fff17 	ldw	r4,-4(fp)
    1db8:	20c7883a 	add	r3,r4,r3
    1dbc:	18c002c4 	addi	r3,r3,11
    1dc0:	19000003 	ldbu	r4,0(r3)
    1dc4:	d0e6c317 	ldw	r3,-25844(gp)
    1dc8:	18c00d43 	ldbu	r3,53(r3)
    1dcc:	20c6b03a 	or	r3,r4,r3
    1dd0:	1809883a 	mov	r4,r3
    1dd4:	e0ffff17 	ldw	r3,-4(fp)
    1dd8:	1885883a 	add	r2,r3,r2
    1ddc:	108002c4 	addi	r2,r2,11
    1de0:	11000005 	stb	r4,0(r2)
    1de4:	e0bfff17 	ldw	r2,-4(fp)
    1de8:	10c00283 	ldbu	r3,10(r2)
    1dec:	d0a6c317 	ldw	r2,-25844(gp)
    1df0:	10800d83 	ldbu	r2,54(r2)
    1df4:	1884b03a 	or	r2,r3,r2
    1df8:	1007883a 	mov	r3,r2
    1dfc:	e0bfff17 	ldw	r2,-4(fp)
    1e00:	10c00285 	stb	r3,10(r2)
    1e04:	d0a6c317 	ldw	r2,-25844(gp)
    1e08:	10800d03 	ldbu	r2,52(r2)
    1e0c:	e0bffe05 	stb	r2,-8(fp)
    1e10:	e0fffe03 	ldbu	r3,-8(fp)
    1e14:	e13ffe03 	ldbu	r4,-8(fp)
    1e18:	d0a6c044 	addi	r2,gp,-25855
    1e1c:	2085883a 	add	r2,r4,r2
    1e20:	10800003 	ldbu	r2,0(r2)
    1e24:	1009883a 	mov	r4,r2
    1e28:	d0a6c317 	ldw	r2,-25844(gp)
    1e2c:	10800d43 	ldbu	r2,53(r2)
    1e30:	0084303a 	nor	r2,zero,r2
    1e34:	2084703a 	and	r2,r4,r2
    1e38:	1009883a 	mov	r4,r2
    1e3c:	d0a6c044 	addi	r2,gp,-25855
    1e40:	1885883a 	add	r2,r3,r2
    1e44:	11000005 	stb	r4,0(r2)
    1e48:	e0fffe03 	ldbu	r3,-8(fp)
    1e4c:	d0a6c044 	addi	r2,gp,-25855
    1e50:	1885883a 	add	r2,r3,r2
    1e54:	10800003 	ldbu	r2,0(r2)
    1e58:	10803fcc 	andi	r2,r2,255
    1e5c:	1000071e 	bne	r2,zero,1e7c <OS_EventTaskWait+0xfc>
    1e60:	d0a6c317 	ldw	r2,-25844(gp)
    1e64:	10800d83 	ldbu	r2,54(r2)
    1e68:	0084303a 	nor	r2,zero,r2
    1e6c:	1007883a 	mov	r3,r2
    1e70:	d0a6c003 	ldbu	r2,-25856(gp)
    1e74:	1884703a 	and	r2,r3,r2
    1e78:	d0a6c005 	stb	r2,-25856(gp)
    1e7c:	0001883a 	nop
    1e80:	e037883a 	mov	sp,fp
    1e84:	df000017 	ldw	fp,0(sp)
    1e88:	dec00104 	addi	sp,sp,4
    1e8c:	f800283a 	ret

00001e90 <OS_EventTaskWaitMulti>:
    1e90:	defffb04 	addi	sp,sp,-20
    1e94:	df000415 	stw	fp,16(sp)
    1e98:	df000404 	addi	fp,sp,16
    1e9c:	e13fff15 	stw	r4,-4(fp)
    1ea0:	d0a6c317 	ldw	r2,-25844(gp)
    1ea4:	10000715 	stw	zero,28(r2)
    1ea8:	d0a6c317 	ldw	r2,-25844(gp)
    1eac:	e0ffff17 	ldw	r3,-4(fp)
    1eb0:	10c00815 	stw	r3,32(r2)
    1eb4:	e0bfff17 	ldw	r2,-4(fp)
    1eb8:	e0bffc15 	stw	r2,-16(fp)
    1ebc:	e0bffc17 	ldw	r2,-16(fp)
    1ec0:	10800017 	ldw	r2,0(r2)
    1ec4:	e0bffd15 	stw	r2,-12(fp)
    1ec8:	00002006 	br	1f4c <OS_EventTaskWaitMulti+0xbc>
    1ecc:	d0a6c317 	ldw	r2,-25844(gp)
    1ed0:	10800d03 	ldbu	r2,52(r2)
    1ed4:	10803fcc 	andi	r2,r2,255
    1ed8:	d0e6c317 	ldw	r3,-25844(gp)
    1edc:	18c00d03 	ldbu	r3,52(r3)
    1ee0:	18c03fcc 	andi	r3,r3,255
    1ee4:	e13ffd17 	ldw	r4,-12(fp)
    1ee8:	20c7883a 	add	r3,r4,r3
    1eec:	18c002c4 	addi	r3,r3,11
    1ef0:	19000003 	ldbu	r4,0(r3)
    1ef4:	d0e6c317 	ldw	r3,-25844(gp)
    1ef8:	18c00d43 	ldbu	r3,53(r3)
    1efc:	20c6b03a 	or	r3,r4,r3
    1f00:	1809883a 	mov	r4,r3
    1f04:	e0fffd17 	ldw	r3,-12(fp)
    1f08:	1885883a 	add	r2,r3,r2
    1f0c:	108002c4 	addi	r2,r2,11
    1f10:	11000005 	stb	r4,0(r2)
    1f14:	e0bffd17 	ldw	r2,-12(fp)
    1f18:	10c00283 	ldbu	r3,10(r2)
    1f1c:	d0a6c317 	ldw	r2,-25844(gp)
    1f20:	10800d83 	ldbu	r2,54(r2)
    1f24:	1884b03a 	or	r2,r3,r2
    1f28:	1007883a 	mov	r3,r2
    1f2c:	e0bffd17 	ldw	r2,-12(fp)
    1f30:	10c00285 	stb	r3,10(r2)
    1f34:	e0bffc17 	ldw	r2,-16(fp)
    1f38:	10800104 	addi	r2,r2,4
    1f3c:	e0bffc15 	stw	r2,-16(fp)
    1f40:	e0bffc17 	ldw	r2,-16(fp)
    1f44:	10800017 	ldw	r2,0(r2)
    1f48:	e0bffd15 	stw	r2,-12(fp)
    1f4c:	e0bffd17 	ldw	r2,-12(fp)
    1f50:	103fde1e 	bne	r2,zero,1ecc <OS_EventTaskWaitMulti+0x3c>
    1f54:	d0a6c317 	ldw	r2,-25844(gp)
    1f58:	10800d03 	ldbu	r2,52(r2)
    1f5c:	e0bffe05 	stb	r2,-8(fp)
    1f60:	e0fffe03 	ldbu	r3,-8(fp)
    1f64:	e13ffe03 	ldbu	r4,-8(fp)
    1f68:	d0a6c044 	addi	r2,gp,-25855
    1f6c:	2085883a 	add	r2,r4,r2
    1f70:	10800003 	ldbu	r2,0(r2)
    1f74:	1009883a 	mov	r4,r2
    1f78:	d0a6c317 	ldw	r2,-25844(gp)
    1f7c:	10800d43 	ldbu	r2,53(r2)
    1f80:	0084303a 	nor	r2,zero,r2
    1f84:	2084703a 	and	r2,r4,r2
    1f88:	1009883a 	mov	r4,r2
    1f8c:	d0a6c044 	addi	r2,gp,-25855
    1f90:	1885883a 	add	r2,r3,r2
    1f94:	11000005 	stb	r4,0(r2)
    1f98:	e0fffe03 	ldbu	r3,-8(fp)
    1f9c:	d0a6c044 	addi	r2,gp,-25855
    1fa0:	1885883a 	add	r2,r3,r2
    1fa4:	10800003 	ldbu	r2,0(r2)
    1fa8:	10803fcc 	andi	r2,r2,255
    1fac:	1000071e 	bne	r2,zero,1fcc <OS_EventTaskWaitMulti+0x13c>
    1fb0:	d0a6c317 	ldw	r2,-25844(gp)
    1fb4:	10800d83 	ldbu	r2,54(r2)
    1fb8:	0084303a 	nor	r2,zero,r2
    1fbc:	1007883a 	mov	r3,r2
    1fc0:	d0a6c003 	ldbu	r2,-25856(gp)
    1fc4:	1884703a 	and	r2,r3,r2
    1fc8:	d0a6c005 	stb	r2,-25856(gp)
    1fcc:	0001883a 	nop
    1fd0:	e037883a 	mov	sp,fp
    1fd4:	df000017 	ldw	fp,0(sp)
    1fd8:	dec00104 	addi	sp,sp,4
    1fdc:	f800283a 	ret

00001fe0 <OS_EventTaskRemove>:
    1fe0:	defffc04 	addi	sp,sp,-16
    1fe4:	df000315 	stw	fp,12(sp)
    1fe8:	df000304 	addi	fp,sp,12
    1fec:	e13ffe15 	stw	r4,-8(fp)
    1ff0:	e17fff15 	stw	r5,-4(fp)
    1ff4:	e0bffe17 	ldw	r2,-8(fp)
    1ff8:	10800d03 	ldbu	r2,52(r2)
    1ffc:	e0bffd05 	stb	r2,-12(fp)
    2000:	e0bffd03 	ldbu	r2,-12(fp)
    2004:	e0fffd03 	ldbu	r3,-12(fp)
    2008:	e13fff17 	ldw	r4,-4(fp)
    200c:	20c7883a 	add	r3,r4,r3
    2010:	18c002c4 	addi	r3,r3,11
    2014:	18c00003 	ldbu	r3,0(r3)
    2018:	1809883a 	mov	r4,r3
    201c:	e0fffe17 	ldw	r3,-8(fp)
    2020:	18c00d43 	ldbu	r3,53(r3)
    2024:	00c6303a 	nor	r3,zero,r3
    2028:	20c6703a 	and	r3,r4,r3
    202c:	1809883a 	mov	r4,r3
    2030:	e0ffff17 	ldw	r3,-4(fp)
    2034:	1885883a 	add	r2,r3,r2
    2038:	108002c4 	addi	r2,r2,11
    203c:	11000005 	stb	r4,0(r2)
    2040:	e0bffd03 	ldbu	r2,-12(fp)
    2044:	e0ffff17 	ldw	r3,-4(fp)
    2048:	1885883a 	add	r2,r3,r2
    204c:	108002c4 	addi	r2,r2,11
    2050:	10800003 	ldbu	r2,0(r2)
    2054:	10803fcc 	andi	r2,r2,255
    2058:	10000a1e 	bne	r2,zero,2084 <OS_EventTaskRemove+0xa4>
    205c:	e0bfff17 	ldw	r2,-4(fp)
    2060:	10800283 	ldbu	r2,10(r2)
    2064:	1007883a 	mov	r3,r2
    2068:	e0bffe17 	ldw	r2,-8(fp)
    206c:	10800d83 	ldbu	r2,54(r2)
    2070:	0084303a 	nor	r2,zero,r2
    2074:	1884703a 	and	r2,r3,r2
    2078:	1007883a 	mov	r3,r2
    207c:	e0bfff17 	ldw	r2,-4(fp)
    2080:	10c00285 	stb	r3,10(r2)
    2084:	0001883a 	nop
    2088:	e037883a 	mov	sp,fp
    208c:	df000017 	ldw	fp,0(sp)
    2090:	dec00104 	addi	sp,sp,4
    2094:	f800283a 	ret

00002098 <OS_EventTaskRemoveMulti>:
    2098:	defffa04 	addi	sp,sp,-24
    209c:	df000515 	stw	fp,20(sp)
    20a0:	df000504 	addi	fp,sp,20
    20a4:	e13ffe15 	stw	r4,-8(fp)
    20a8:	e17fff15 	stw	r5,-4(fp)
    20ac:	e0bffe17 	ldw	r2,-8(fp)
    20b0:	10800d03 	ldbu	r2,52(r2)
    20b4:	e0bffd05 	stb	r2,-12(fp)
    20b8:	e0bffe17 	ldw	r2,-8(fp)
    20bc:	10800d83 	ldbu	r2,54(r2)
    20c0:	e0bffd45 	stb	r2,-11(fp)
    20c4:	e0bffe17 	ldw	r2,-8(fp)
    20c8:	10800d43 	ldbu	r2,53(r2)
    20cc:	e0bffd85 	stb	r2,-10(fp)
    20d0:	e0bfff17 	ldw	r2,-4(fp)
    20d4:	e0bffb15 	stw	r2,-20(fp)
    20d8:	e0bffb17 	ldw	r2,-20(fp)
    20dc:	10800017 	ldw	r2,0(r2)
    20e0:	e0bffc15 	stw	r2,-16(fp)
    20e4:	00002506 	br	217c <OS_EventTaskRemoveMulti+0xe4>
    20e8:	e0bffd03 	ldbu	r2,-12(fp)
    20ec:	e0fffd03 	ldbu	r3,-12(fp)
    20f0:	e13ffc17 	ldw	r4,-16(fp)
    20f4:	20c7883a 	add	r3,r4,r3
    20f8:	18c002c4 	addi	r3,r3,11
    20fc:	18c00003 	ldbu	r3,0(r3)
    2100:	1809883a 	mov	r4,r3
    2104:	e0fffd83 	ldbu	r3,-10(fp)
    2108:	00c6303a 	nor	r3,zero,r3
    210c:	20c6703a 	and	r3,r4,r3
    2110:	1809883a 	mov	r4,r3
    2114:	e0fffc17 	ldw	r3,-16(fp)
    2118:	1885883a 	add	r2,r3,r2
    211c:	108002c4 	addi	r2,r2,11
    2120:	11000005 	stb	r4,0(r2)
    2124:	e0bffd03 	ldbu	r2,-12(fp)
    2128:	e0fffc17 	ldw	r3,-16(fp)
    212c:	1885883a 	add	r2,r3,r2
    2130:	108002c4 	addi	r2,r2,11
    2134:	10800003 	ldbu	r2,0(r2)
    2138:	10803fcc 	andi	r2,r2,255
    213c:	1000091e 	bne	r2,zero,2164 <OS_EventTaskRemoveMulti+0xcc>
    2140:	e0bffc17 	ldw	r2,-16(fp)
    2144:	10800283 	ldbu	r2,10(r2)
    2148:	1007883a 	mov	r3,r2
    214c:	e0bffd43 	ldbu	r2,-11(fp)
    2150:	0084303a 	nor	r2,zero,r2
    2154:	1884703a 	and	r2,r3,r2
    2158:	1007883a 	mov	r3,r2
    215c:	e0bffc17 	ldw	r2,-16(fp)
    2160:	10c00285 	stb	r3,10(r2)
    2164:	e0bffb17 	ldw	r2,-20(fp)
    2168:	10800104 	addi	r2,r2,4
    216c:	e0bffb15 	stw	r2,-20(fp)
    2170:	e0bffb17 	ldw	r2,-20(fp)
    2174:	10800017 	ldw	r2,0(r2)
    2178:	e0bffc15 	stw	r2,-16(fp)
    217c:	e0bffc17 	ldw	r2,-16(fp)
    2180:	103fd91e 	bne	r2,zero,20e8 <OS_EventTaskRemoveMulti+0x50>
    2184:	0001883a 	nop
    2188:	e037883a 	mov	sp,fp
    218c:	df000017 	ldw	fp,0(sp)
    2190:	dec00104 	addi	sp,sp,4
    2194:	f800283a 	ret

00002198 <OS_EventWaitListInit>:
    2198:	defffc04 	addi	sp,sp,-16
    219c:	df000315 	stw	fp,12(sp)
    21a0:	df000304 	addi	fp,sp,12
    21a4:	e13fff15 	stw	r4,-4(fp)
    21a8:	e0bfff17 	ldw	r2,-4(fp)
    21ac:	10000285 	stb	zero,10(r2)
    21b0:	e0bfff17 	ldw	r2,-4(fp)
    21b4:	108002c4 	addi	r2,r2,11
    21b8:	e0bffd15 	stw	r2,-12(fp)
    21bc:	e03ffe05 	stb	zero,-8(fp)
    21c0:	00000706 	br	21e0 <OS_EventWaitListInit+0x48>
    21c4:	e0bffd17 	ldw	r2,-12(fp)
    21c8:	10c00044 	addi	r3,r2,1
    21cc:	e0fffd15 	stw	r3,-12(fp)
    21d0:	10000005 	stb	zero,0(r2)
    21d4:	e0bffe03 	ldbu	r2,-8(fp)
    21d8:	10800044 	addi	r2,r2,1
    21dc:	e0bffe05 	stb	r2,-8(fp)
    21e0:	e0bffe03 	ldbu	r2,-8(fp)
    21e4:	108000f0 	cmpltui	r2,r2,3
    21e8:	103ff61e 	bne	r2,zero,21c4 <OS_EventWaitListInit+0x2c>
    21ec:	0001883a 	nop
    21f0:	e037883a 	mov	sp,fp
    21f4:	df000017 	ldw	fp,0(sp)
    21f8:	dec00104 	addi	sp,sp,4
    21fc:	f800283a 	ret

00002200 <OS_InitEventList>:
    2200:	defffb04 	addi	sp,sp,-20
    2204:	dfc00415 	stw	ra,16(sp)
    2208:	df000315 	stw	fp,12(sp)
    220c:	df000304 	addi	fp,sp,12
    2210:	0142d004 	movi	r5,2880
    2214:	01000074 	movhi	r4,1
    2218:	21185204 	addi	r4,r4,24904
    221c:	00025780 	call	2578 <OS_MemClr>
    2220:	00800074 	movhi	r2,1
    2224:	10985204 	addi	r2,r2,24904
    2228:	e0bffe15 	stw	r2,-8(fp)
    222c:	00800074 	movhi	r2,1
    2230:	10985e04 	addi	r2,r2,24952
    2234:	e0bfff15 	stw	r2,-4(fp)
    2238:	e03ffd0d 	sth	zero,-12(fp)
    223c:	00001306 	br	228c <OS_InitEventList+0x8c>
    2240:	e0bffe17 	ldw	r2,-8(fp)
    2244:	10000005 	stb	zero,0(r2)
    2248:	e0bffe17 	ldw	r2,-8(fp)
    224c:	e0ffff17 	ldw	r3,-4(fp)
    2250:	10c00115 	stw	r3,4(r2)
    2254:	e0bffe17 	ldw	r2,-8(fp)
    2258:	00c00fc4 	movi	r3,63
    225c:	10c00385 	stb	r3,14(r2)
    2260:	e0bffe17 	ldw	r2,-8(fp)
    2264:	100003c5 	stb	zero,15(r2)
    2268:	e0bffe17 	ldw	r2,-8(fp)
    226c:	10800c04 	addi	r2,r2,48
    2270:	e0bffe15 	stw	r2,-8(fp)
    2274:	e0bfff17 	ldw	r2,-4(fp)
    2278:	10800c04 	addi	r2,r2,48
    227c:	e0bfff15 	stw	r2,-4(fp)
    2280:	e0bffd0b 	ldhu	r2,-12(fp)
    2284:	10800044 	addi	r2,r2,1
    2288:	e0bffd0d 	sth	r2,-12(fp)
    228c:	e0bffd0b 	ldhu	r2,-12(fp)
    2290:	10800ef0 	cmpltui	r2,r2,59
    2294:	103fea1e 	bne	r2,zero,2240 <OS_InitEventList+0x40>
    2298:	e0bffe17 	ldw	r2,-8(fp)
    229c:	10000005 	stb	zero,0(r2)
    22a0:	e0bffe17 	ldw	r2,-8(fp)
    22a4:	10000115 	stw	zero,4(r2)
    22a8:	e0bffe17 	ldw	r2,-8(fp)
    22ac:	00c00fc4 	movi	r3,63
    22b0:	10c00385 	stb	r3,14(r2)
    22b4:	e0bffe17 	ldw	r2,-8(fp)
    22b8:	100003c5 	stb	zero,15(r2)
    22bc:	00800074 	movhi	r2,1
    22c0:	10985204 	addi	r2,r2,24904
    22c4:	d0a6c115 	stw	r2,-25852(gp)
    22c8:	0001883a 	nop
    22cc:	e037883a 	mov	sp,fp
    22d0:	dfc00117 	ldw	ra,4(sp)
    22d4:	df000017 	ldw	fp,0(sp)
    22d8:	dec00204 	addi	sp,sp,8
    22dc:	f800283a 	ret

000022e0 <OS_InitMisc>:
    22e0:	deffff04 	addi	sp,sp,-4
    22e4:	df000015 	stw	fp,0(sp)
    22e8:	d839883a 	mov	fp,sp
    22ec:	d026c415 	stw	zero,-25840(gp)
    22f0:	d026c205 	stb	zero,-25848(gp)
    22f4:	d026b405 	stb	zero,-25904(gp)
    22f8:	d026bc45 	stb	zero,-25871(gp)
    22fc:	d026b445 	stb	zero,-25903(gp)
    2300:	d026b915 	stw	zero,-25884(gp)
    2304:	d026b515 	stw	zero,-25900(gp)
    2308:	d026c715 	stw	zero,-25828(gp)
    230c:	d026ba15 	stw	zero,-25880(gp)
    2310:	d026c605 	stb	zero,-25832(gp)
    2314:	0001883a 	nop
    2318:	e037883a 	mov	sp,fp
    231c:	df000017 	ldw	fp,0(sp)
    2320:	dec00104 	addi	sp,sp,4
    2324:	f800283a 	ret

00002328 <OS_InitRdyList>:
    2328:	defffd04 	addi	sp,sp,-12
    232c:	df000215 	stw	fp,8(sp)
    2330:	df000204 	addi	fp,sp,8
    2334:	d026c005 	stb	zero,-25856(gp)
    2338:	d0a6c044 	addi	r2,gp,-25855
    233c:	e0bfff15 	stw	r2,-4(fp)
    2340:	e03ffe05 	stb	zero,-8(fp)
    2344:	00000706 	br	2364 <OS_InitRdyList+0x3c>
    2348:	e0bfff17 	ldw	r2,-4(fp)
    234c:	10c00044 	addi	r3,r2,1
    2350:	e0ffff15 	stw	r3,-4(fp)
    2354:	10000005 	stb	zero,0(r2)
    2358:	e0bffe03 	ldbu	r2,-8(fp)
    235c:	10800044 	addi	r2,r2,1
    2360:	e0bffe05 	stb	r2,-8(fp)
    2364:	e0bffe03 	ldbu	r2,-8(fp)
    2368:	108000f0 	cmpltui	r2,r2,3
    236c:	103ff61e 	bne	r2,zero,2348 <OS_InitRdyList+0x20>
    2370:	d026b645 	stb	zero,-25895(gp)
    2374:	d026b605 	stb	zero,-25896(gp)
    2378:	d026be15 	stw	zero,-25864(gp)
    237c:	d026c315 	stw	zero,-25844(gp)
    2380:	0001883a 	nop
    2384:	e037883a 	mov	sp,fp
    2388:	df000017 	ldw	fp,0(sp)
    238c:	dec00104 	addi	sp,sp,4
    2390:	f800283a 	ret

00002394 <OS_InitTaskIdle>:
    2394:	defff804 	addi	sp,sp,-32
    2398:	dfc00715 	stw	ra,28(sp)
    239c:	df000615 	stw	fp,24(sp)
    23a0:	df000604 	addi	fp,sp,24
    23a4:	008000c4 	movi	r2,3
    23a8:	d8800415 	stw	r2,16(sp)
    23ac:	d8000315 	stw	zero,12(sp)
    23b0:	00808004 	movi	r2,512
    23b4:	d8800215 	stw	r2,8(sp)
    23b8:	00800074 	movhi	r2,1
    23bc:	10965204 	addi	r2,r2,22856
    23c0:	d8800115 	stw	r2,4(sp)
    23c4:	00bfffd4 	movui	r2,65535
    23c8:	d8800015 	stw	r2,0(sp)
    23cc:	01c00504 	movi	r7,20
    23d0:	01800074 	movhi	r6,1
    23d4:	31985104 	addi	r6,r6,24900
    23d8:	000b883a 	mov	r5,zero
    23dc:	01000034 	movhi	r4,0
    23e0:	210a1004 	addi	r4,r4,10304
    23e4:	0006f100 	call	6f10 <OSTaskCreateExt>
    23e8:	e1bfff04 	addi	r6,fp,-4
    23ec:	01400074 	movhi	r5,1
    23f0:	29726f04 	addi	r5,r5,-13892
    23f4:	01000504 	movi	r4,20
    23f8:	00077200 	call	7720 <OSTaskNameSet>
    23fc:	0001883a 	nop
    2400:	e037883a 	mov	sp,fp
    2404:	dfc00117 	ldw	ra,4(sp)
    2408:	df000017 	ldw	fp,0(sp)
    240c:	dec00204 	addi	sp,sp,8
    2410:	f800283a 	ret

00002414 <OS_InitTaskStat>:
    2414:	defff804 	addi	sp,sp,-32
    2418:	dfc00715 	stw	ra,28(sp)
    241c:	df000615 	stw	fp,24(sp)
    2420:	df000604 	addi	fp,sp,24
    2424:	008000c4 	movi	r2,3
    2428:	d8800415 	stw	r2,16(sp)
    242c:	d8000315 	stw	zero,12(sp)
    2430:	00808004 	movi	r2,512
    2434:	d8800215 	stw	r2,8(sp)
    2438:	00800074 	movhi	r2,1
    243c:	1093da04 	addi	r2,r2,20328
    2440:	d8800115 	stw	r2,4(sp)
    2444:	00bfff94 	movui	r2,65534
    2448:	d8800015 	stw	r2,0(sp)
    244c:	01c004c4 	movi	r7,19
    2450:	01800074 	movhi	r6,1
    2454:	3195d904 	addi	r6,r6,22372
    2458:	000b883a 	mov	r5,zero
    245c:	01000034 	movhi	r4,0
    2460:	210a2704 	addi	r4,r4,10396
    2464:	0006f100 	call	6f10 <OSTaskCreateExt>
    2468:	e1bfff04 	addi	r6,fp,-4
    246c:	01400074 	movhi	r5,1
    2470:	29727304 	addi	r5,r5,-13876
    2474:	010004c4 	movi	r4,19
    2478:	00077200 	call	7720 <OSTaskNameSet>
    247c:	0001883a 	nop
    2480:	e037883a 	mov	sp,fp
    2484:	dfc00117 	ldw	ra,4(sp)
    2488:	df000017 	ldw	fp,0(sp)
    248c:	dec00204 	addi	sp,sp,8
    2490:	f800283a 	ret

00002494 <OS_InitTCBList>:
    2494:	defffb04 	addi	sp,sp,-20
    2498:	dfc00415 	stw	ra,16(sp)
    249c:	df000315 	stw	fp,12(sp)
    24a0:	df000304 	addi	fp,sp,12
    24a4:	01414404 	movi	r5,1296
    24a8:	01000074 	movhi	r4,1
    24ac:	211b2204 	addi	r4,r4,27784
    24b0:	00025780 	call	2578 <OS_MemClr>
    24b4:	01401504 	movi	r5,84
    24b8:	01000074 	movhi	r4,1
    24bc:	211c6604 	addi	r4,r4,29080
    24c0:	00025780 	call	2578 <OS_MemClr>
    24c4:	00800074 	movhi	r2,1
    24c8:	109b2204 	addi	r2,r2,27784
    24cc:	e0bffe15 	stw	r2,-8(fp)
    24d0:	00800074 	movhi	r2,1
    24d4:	109b3d04 	addi	r2,r2,27892
    24d8:	e0bfff15 	stw	r2,-4(fp)
    24dc:	e03ffd05 	stb	zero,-12(fp)
    24e0:	00001106 	br	2528 <OS_InitTCBList+0x94>
    24e4:	e0bffe17 	ldw	r2,-8(fp)
    24e8:	e0ffff17 	ldw	r3,-4(fp)
    24ec:	10c00515 	stw	r3,20(r2)
    24f0:	e0bffe17 	ldw	r2,-8(fp)
    24f4:	00c00fc4 	movi	r3,63
    24f8:	10c01305 	stb	r3,76(r2)
    24fc:	e0bffe17 	ldw	r2,-8(fp)
    2500:	10001345 	stb	zero,77(r2)
    2504:	e0bffe17 	ldw	r2,-8(fp)
    2508:	10801b04 	addi	r2,r2,108
    250c:	e0bffe15 	stw	r2,-8(fp)
    2510:	e0bfff17 	ldw	r2,-4(fp)
    2514:	10801b04 	addi	r2,r2,108
    2518:	e0bfff15 	stw	r2,-4(fp)
    251c:	e0bffd03 	ldbu	r2,-12(fp)
    2520:	10800044 	addi	r2,r2,1
    2524:	e0bffd05 	stb	r2,-12(fp)
    2528:	e0bffd03 	ldbu	r2,-12(fp)
    252c:	108002f0 	cmpltui	r2,r2,11
    2530:	103fec1e 	bne	r2,zero,24e4 <OS_InitTCBList+0x50>
    2534:	e0bffe17 	ldw	r2,-8(fp)
    2538:	10000515 	stw	zero,20(r2)
    253c:	e0bffe17 	ldw	r2,-8(fp)
    2540:	00c00fc4 	movi	r3,63
    2544:	10c01305 	stb	r3,76(r2)
    2548:	e0bffe17 	ldw	r2,-8(fp)
    254c:	10001345 	stb	zero,77(r2)
    2550:	d026b715 	stw	zero,-25892(gp)
    2554:	00800074 	movhi	r2,1
    2558:	109b2204 	addi	r2,r2,27784
    255c:	d0a6bb15 	stw	r2,-25876(gp)
    2560:	0001883a 	nop
    2564:	e037883a 	mov	sp,fp
    2568:	dfc00117 	ldw	ra,4(sp)
    256c:	df000017 	ldw	fp,0(sp)
    2570:	dec00204 	addi	sp,sp,8
    2574:	f800283a 	ret

00002578 <OS_MemClr>:
    2578:	defffd04 	addi	sp,sp,-12
    257c:	df000215 	stw	fp,8(sp)
    2580:	df000204 	addi	fp,sp,8
    2584:	e13ffe15 	stw	r4,-8(fp)
    2588:	2805883a 	mov	r2,r5
    258c:	e0bfff0d 	sth	r2,-4(fp)
    2590:	00000706 	br	25b0 <OS_MemClr+0x38>
    2594:	e0bffe17 	ldw	r2,-8(fp)
    2598:	10c00044 	addi	r3,r2,1
    259c:	e0fffe15 	stw	r3,-8(fp)
    25a0:	10000005 	stb	zero,0(r2)
    25a4:	e0bfff0b 	ldhu	r2,-4(fp)
    25a8:	10bfffc4 	addi	r2,r2,-1
    25ac:	e0bfff0d 	sth	r2,-4(fp)
    25b0:	e0bfff0b 	ldhu	r2,-4(fp)
    25b4:	103ff71e 	bne	r2,zero,2594 <OS_MemClr+0x1c>
    25b8:	0001883a 	nop
    25bc:	e037883a 	mov	sp,fp
    25c0:	df000017 	ldw	fp,0(sp)
    25c4:	dec00104 	addi	sp,sp,4
    25c8:	f800283a 	ret

000025cc <OS_MemCopy>:
    25cc:	defffc04 	addi	sp,sp,-16
    25d0:	df000315 	stw	fp,12(sp)
    25d4:	df000304 	addi	fp,sp,12
    25d8:	e13ffd15 	stw	r4,-12(fp)
    25dc:	e17ffe15 	stw	r5,-8(fp)
    25e0:	3005883a 	mov	r2,r6
    25e4:	e0bfff0d 	sth	r2,-4(fp)
    25e8:	00000b06 	br	2618 <OS_MemCopy+0x4c>
    25ec:	e0bffd17 	ldw	r2,-12(fp)
    25f0:	10c00044 	addi	r3,r2,1
    25f4:	e0fffd15 	stw	r3,-12(fp)
    25f8:	e0fffe17 	ldw	r3,-8(fp)
    25fc:	19000044 	addi	r4,r3,1
    2600:	e13ffe15 	stw	r4,-8(fp)
    2604:	18c00003 	ldbu	r3,0(r3)
    2608:	10c00005 	stb	r3,0(r2)
    260c:	e0bfff0b 	ldhu	r2,-4(fp)
    2610:	10bfffc4 	addi	r2,r2,-1
    2614:	e0bfff0d 	sth	r2,-4(fp)
    2618:	e0bfff0b 	ldhu	r2,-4(fp)
    261c:	103ff31e 	bne	r2,zero,25ec <OS_MemCopy+0x20>
    2620:	0001883a 	nop
    2624:	e037883a 	mov	sp,fp
    2628:	df000017 	ldw	fp,0(sp)
    262c:	dec00104 	addi	sp,sp,4
    2630:	f800283a 	ret

00002634 <OS_Sched>:
    2634:	defffb04 	addi	sp,sp,-20
    2638:	dfc00415 	stw	ra,16(sp)
    263c:	df000315 	stw	fp,12(sp)
    2640:	df000304 	addi	fp,sp,12
    2644:	e03ffd15 	stw	zero,-12(fp)
    2648:	0005303a 	rdctl	r2,status
    264c:	e0bfff15 	stw	r2,-4(fp)
    2650:	e0ffff17 	ldw	r3,-4(fp)
    2654:	00bfff84 	movi	r2,-2
    2658:	1884703a 	and	r2,r3,r2
    265c:	1001703a 	wrctl	status,r2
    2660:	e0bfff17 	ldw	r2,-4(fp)
    2664:	e0bffd15 	stw	r2,-12(fp)
    2668:	d0a6c203 	ldbu	r2,-25848(gp)
    266c:	10803fcc 	andi	r2,r2,255
    2670:	10001a1e 	bne	r2,zero,26dc <OS_Sched+0xa8>
    2674:	d0a6b403 	ldbu	r2,-25904(gp)
    2678:	10803fcc 	andi	r2,r2,255
    267c:	1000171e 	bne	r2,zero,26dc <OS_Sched+0xa8>
    2680:	00027040 	call	2704 <OS_SchedNew>
    2684:	d0e6b603 	ldbu	r3,-25896(gp)
    2688:	d0a6b643 	ldbu	r2,-25895(gp)
    268c:	18c03fcc 	andi	r3,r3,255
    2690:	10803fcc 	andi	r2,r2,255
    2694:	18801126 	beq	r3,r2,26dc <OS_Sched+0xa8>
    2698:	d0a6b603 	ldbu	r2,-25896(gp)
    269c:	10c03fcc 	andi	r3,r2,255
    26a0:	00800074 	movhi	r2,1
    26a4:	109c6604 	addi	r2,r2,29080
    26a8:	18c7883a 	add	r3,r3,r3
    26ac:	18c7883a 	add	r3,r3,r3
    26b0:	10c5883a 	add	r2,r2,r3
    26b4:	10800017 	ldw	r2,0(r2)
    26b8:	d0a6be15 	stw	r2,-25864(gp)
    26bc:	d0a6be17 	ldw	r2,-25864(gp)
    26c0:	10c00e17 	ldw	r3,56(r2)
    26c4:	18c00044 	addi	r3,r3,1
    26c8:	10c00e15 	stw	r3,56(r2)
    26cc:	d0a6b917 	ldw	r2,-25884(gp)
    26d0:	10800044 	addi	r2,r2,1
    26d4:	d0a6b915 	stw	r2,-25884(gp)
    26d8:	000bba80 	call	bba8 <OSCtxSw>
    26dc:	e0bffd17 	ldw	r2,-12(fp)
    26e0:	e0bffe15 	stw	r2,-8(fp)
    26e4:	e0bffe17 	ldw	r2,-8(fp)
    26e8:	1001703a 	wrctl	status,r2
    26ec:	0001883a 	nop
    26f0:	e037883a 	mov	sp,fp
    26f4:	dfc00117 	ldw	ra,4(sp)
    26f8:	df000017 	ldw	fp,0(sp)
    26fc:	dec00204 	addi	sp,sp,8
    2700:	f800283a 	ret

00002704 <OS_SchedNew>:
    2704:	defffe04 	addi	sp,sp,-8
    2708:	df000115 	stw	fp,4(sp)
    270c:	df000104 	addi	fp,sp,4
    2710:	d0a6c003 	ldbu	r2,-25856(gp)
    2714:	10c03fcc 	andi	r3,r2,255
    2718:	00800074 	movhi	r2,1
    271c:	10b22f04 	addi	r2,r2,-14148
    2720:	10c5883a 	add	r2,r2,r3
    2724:	10800003 	ldbu	r2,0(r2)
    2728:	e0bfff05 	stb	r2,-4(fp)
    272c:	e0bfff03 	ldbu	r2,-4(fp)
    2730:	100490fa 	slli	r2,r2,3
    2734:	1009883a 	mov	r4,r2
    2738:	e0ffff03 	ldbu	r3,-4(fp)
    273c:	d0a6c044 	addi	r2,gp,-25855
    2740:	1885883a 	add	r2,r3,r2
    2744:	10800003 	ldbu	r2,0(r2)
    2748:	10c03fcc 	andi	r3,r2,255
    274c:	00800074 	movhi	r2,1
    2750:	10b22f04 	addi	r2,r2,-14148
    2754:	10c5883a 	add	r2,r2,r3
    2758:	10800003 	ldbu	r2,0(r2)
    275c:	2085883a 	add	r2,r4,r2
    2760:	d0a6b605 	stb	r2,-25896(gp)
    2764:	0001883a 	nop
    2768:	e037883a 	mov	sp,fp
    276c:	df000017 	ldw	fp,0(sp)
    2770:	dec00104 	addi	sp,sp,4
    2774:	f800283a 	ret

00002778 <OS_StrCopy>:
    2778:	defffc04 	addi	sp,sp,-16
    277c:	df000315 	stw	fp,12(sp)
    2780:	df000304 	addi	fp,sp,12
    2784:	e13ffe15 	stw	r4,-8(fp)
    2788:	e17fff15 	stw	r5,-4(fp)
    278c:	e03ffd05 	stb	zero,-12(fp)
    2790:	00000b06 	br	27c0 <OS_StrCopy+0x48>
    2794:	e0bffe17 	ldw	r2,-8(fp)
    2798:	10c00044 	addi	r3,r2,1
    279c:	e0fffe15 	stw	r3,-8(fp)
    27a0:	e0ffff17 	ldw	r3,-4(fp)
    27a4:	19000044 	addi	r4,r3,1
    27a8:	e13fff15 	stw	r4,-4(fp)
    27ac:	18c00003 	ldbu	r3,0(r3)
    27b0:	10c00005 	stb	r3,0(r2)
    27b4:	e0bffd03 	ldbu	r2,-12(fp)
    27b8:	10800044 	addi	r2,r2,1
    27bc:	e0bffd05 	stb	r2,-12(fp)
    27c0:	e0bfff17 	ldw	r2,-4(fp)
    27c4:	10800003 	ldbu	r2,0(r2)
    27c8:	10803fcc 	andi	r2,r2,255
    27cc:	103ff11e 	bne	r2,zero,2794 <OS_StrCopy+0x1c>
    27d0:	e0bffe17 	ldw	r2,-8(fp)
    27d4:	10000005 	stb	zero,0(r2)
    27d8:	e0bffd03 	ldbu	r2,-12(fp)
    27dc:	e037883a 	mov	sp,fp
    27e0:	df000017 	ldw	fp,0(sp)
    27e4:	dec00104 	addi	sp,sp,4
    27e8:	f800283a 	ret

000027ec <OS_StrLen>:
    27ec:	defffd04 	addi	sp,sp,-12
    27f0:	df000215 	stw	fp,8(sp)
    27f4:	df000204 	addi	fp,sp,8
    27f8:	e13fff15 	stw	r4,-4(fp)
    27fc:	e03ffe05 	stb	zero,-8(fp)
    2800:	00000606 	br	281c <OS_StrLen+0x30>
    2804:	e0bfff17 	ldw	r2,-4(fp)
    2808:	10800044 	addi	r2,r2,1
    280c:	e0bfff15 	stw	r2,-4(fp)
    2810:	e0bffe03 	ldbu	r2,-8(fp)
    2814:	10800044 	addi	r2,r2,1
    2818:	e0bffe05 	stb	r2,-8(fp)
    281c:	e0bfff17 	ldw	r2,-4(fp)
    2820:	10800003 	ldbu	r2,0(r2)
    2824:	10803fcc 	andi	r2,r2,255
    2828:	103ff61e 	bne	r2,zero,2804 <OS_StrLen+0x18>
    282c:	e0bffe03 	ldbu	r2,-8(fp)
    2830:	e037883a 	mov	sp,fp
    2834:	df000017 	ldw	fp,0(sp)
    2838:	dec00104 	addi	sp,sp,4
    283c:	f800283a 	ret

00002840 <OS_TaskIdle>:
    2840:	defffa04 	addi	sp,sp,-24
    2844:	dfc00515 	stw	ra,20(sp)
    2848:	df000415 	stw	fp,16(sp)
    284c:	df000404 	addi	fp,sp,16
    2850:	e13fff15 	stw	r4,-4(fp)
    2854:	e03ffc15 	stw	zero,-16(fp)
    2858:	0005303a 	rdctl	r2,status
    285c:	e0bffd15 	stw	r2,-12(fp)
    2860:	e0fffd17 	ldw	r3,-12(fp)
    2864:	00bfff84 	movi	r2,-2
    2868:	1884703a 	and	r2,r3,r2
    286c:	1001703a 	wrctl	status,r2
    2870:	e0bffd17 	ldw	r2,-12(fp)
    2874:	e0bffc15 	stw	r2,-16(fp)
    2878:	d0a6b517 	ldw	r2,-25900(gp)
    287c:	10800044 	addi	r2,r2,1
    2880:	d0a6b515 	stw	r2,-25900(gp)
    2884:	e0bffc17 	ldw	r2,-16(fp)
    2888:	e0bffe15 	stw	r2,-8(fp)
    288c:	e0bffe17 	ldw	r2,-8(fp)
    2890:	1001703a 	wrctl	status,r2
    2894:	000bebc0 	call	bebc <OSTaskIdleHook>
    2898:	003fef06 	br	2858 <OS_TaskIdle+0x18>

0000289c <OS_TaskStat>:
    289c:	defff804 	addi	sp,sp,-32
    28a0:	dfc00715 	stw	ra,28(sp)
    28a4:	df000615 	stw	fp,24(sp)
    28a8:	dc400515 	stw	r17,20(sp)
    28ac:	dc000415 	stw	r16,16(sp)
    28b0:	df000604 	addi	fp,sp,24
    28b4:	e13ffd15 	stw	r4,-12(fp)
    28b8:	e03ffa15 	stw	zero,-24(fp)
    28bc:	00000206 	br	28c8 <OS_TaskStat+0x2c>
    28c0:	01000044 	movi	r4,1
    28c4:	0007fe00 	call	7fe0 <OSTimeDly>
    28c8:	d0a6c603 	ldbu	r2,-25832(gp)
    28cc:	10803fcc 	andi	r2,r2,255
    28d0:	103ffb26 	beq	r2,zero,28c0 <OS_TaskStat+0x24>
    28d4:	d0e6ba17 	ldw	r3,-25880(gp)
    28d8:	00947b34 	movhi	r2,20972
    28dc:	10a147c4 	addi	r2,r2,-31457
    28e0:	1888383a 	mulxuu	r4,r3,r2
    28e4:	1885383a 	mul	r2,r3,r2
    28e8:	1021883a 	mov	r16,r2
    28ec:	2023883a 	mov	r17,r4
    28f0:	8804d17a 	srli	r2,r17,5
    28f4:	d0a6ba15 	stw	r2,-25880(gp)
    28f8:	d0a6ba17 	ldw	r2,-25880(gp)
    28fc:	1000031e 	bne	r2,zero,290c <OS_TaskStat+0x70>
    2900:	d026bc05 	stb	zero,-25872(gp)
    2904:	01003fc4 	movi	r4,255
    2908:	0007c680 	call	7c68 <OSTaskSuspend>
    290c:	0005303a 	rdctl	r2,status
    2910:	e0bffb15 	stw	r2,-20(fp)
    2914:	e0fffb17 	ldw	r3,-20(fp)
    2918:	00bfff84 	movi	r2,-2
    291c:	1884703a 	and	r2,r3,r2
    2920:	1001703a 	wrctl	status,r2
    2924:	e0bffb17 	ldw	r2,-20(fp)
    2928:	e0bffa15 	stw	r2,-24(fp)
    292c:	d0a6b517 	ldw	r2,-25900(gp)
    2930:	d0a6c715 	stw	r2,-25828(gp)
    2934:	d026b515 	stw	zero,-25900(gp)
    2938:	e0bffa17 	ldw	r2,-24(fp)
    293c:	e0bffc15 	stw	r2,-16(fp)
    2940:	e0bffc17 	ldw	r2,-16(fp)
    2944:	1001703a 	wrctl	status,r2
    2948:	d0e6c717 	ldw	r3,-25828(gp)
    294c:	d0a6ba17 	ldw	r2,-25880(gp)
    2950:	1885203a 	divu	r2,r3,r2
    2954:	1007883a 	mov	r3,r2
    2958:	00801904 	movi	r2,100
    295c:	10c5c83a 	sub	r2,r2,r3
    2960:	d0a6bc05 	stb	r2,-25872(gp)
    2964:	000be3c0 	call	be3c <OSTaskStatHook>
    2968:	00029780 	call	2978 <OS_TaskStatStkChk>
    296c:	0009883a 	mov	r4,zero
    2970:	0007fe00 	call	7fe0 <OSTimeDly>
    2974:	003fe506 	br	290c <OS_TaskStat+0x70>

00002978 <OS_TaskStatStkChk>:
    2978:	defffa04 	addi	sp,sp,-24
    297c:	dfc00515 	stw	ra,20(sp)
    2980:	df000415 	stw	fp,16(sp)
    2984:	df000404 	addi	fp,sp,16
    2988:	e03ffc05 	stb	zero,-16(fp)
    298c:	00002406 	br	2a20 <OS_TaskStatStkChk+0xa8>
    2990:	e0bffc03 	ldbu	r2,-16(fp)
    2994:	e0fffe04 	addi	r3,fp,-8
    2998:	180b883a 	mov	r5,r3
    299c:	1009883a 	mov	r4,r2
    29a0:	0007aa80 	call	7aa8 <OSTaskStkChk>
    29a4:	e0bffc45 	stb	r2,-15(fp)
    29a8:	e0bffc43 	ldbu	r2,-15(fp)
    29ac:	1000191e 	bne	r2,zero,2a14 <OS_TaskStatStkChk+0x9c>
    29b0:	e0fffc03 	ldbu	r3,-16(fp)
    29b4:	00800074 	movhi	r2,1
    29b8:	109c6604 	addi	r2,r2,29080
    29bc:	18c7883a 	add	r3,r3,r3
    29c0:	18c7883a 	add	r3,r3,r3
    29c4:	10c5883a 	add	r2,r2,r3
    29c8:	10800017 	ldw	r2,0(r2)
    29cc:	e0bffd15 	stw	r2,-12(fp)
    29d0:	e0bffd17 	ldw	r2,-12(fp)
    29d4:	10000f26 	beq	r2,zero,2a14 <OS_TaskStatStkChk+0x9c>
    29d8:	e0bffd17 	ldw	r2,-12(fp)
    29dc:	10800060 	cmpeqi	r2,r2,1
    29e0:	10000c1e 	bne	r2,zero,2a14 <OS_TaskStatStkChk+0x9c>
    29e4:	e0bffd17 	ldw	r2,-12(fp)
    29e8:	10c00217 	ldw	r3,8(r2)
    29ec:	e0bffd17 	ldw	r2,-12(fp)
    29f0:	10800317 	ldw	r2,12(r2)
    29f4:	1085883a 	add	r2,r2,r2
    29f8:	1085883a 	add	r2,r2,r2
    29fc:	1887883a 	add	r3,r3,r2
    2a00:	e0bffd17 	ldw	r2,-12(fp)
    2a04:	10c01115 	stw	r3,68(r2)
    2a08:	e0ffff17 	ldw	r3,-4(fp)
    2a0c:	e0bffd17 	ldw	r2,-12(fp)
    2a10:	10c01215 	stw	r3,72(r2)
    2a14:	e0bffc03 	ldbu	r2,-16(fp)
    2a18:	10800044 	addi	r2,r2,1
    2a1c:	e0bffc05 	stb	r2,-16(fp)
    2a20:	e0bffc03 	ldbu	r2,-16(fp)
    2a24:	10800570 	cmpltui	r2,r2,21
    2a28:	103fd91e 	bne	r2,zero,2990 <OS_TaskStatStkChk+0x18>
    2a2c:	0001883a 	nop
    2a30:	e037883a 	mov	sp,fp
    2a34:	dfc00117 	ldw	ra,4(sp)
    2a38:	df000017 	ldw	fp,0(sp)
    2a3c:	dec00204 	addi	sp,sp,8
    2a40:	f800283a 	ret

00002a44 <OS_TCBInit>:
    2a44:	defff204 	addi	sp,sp,-56
    2a48:	dfc00d15 	stw	ra,52(sp)
    2a4c:	df000c15 	stw	fp,48(sp)
    2a50:	df000c04 	addi	fp,sp,48
    2a54:	e17ffc15 	stw	r5,-16(fp)
    2a58:	e1bffd15 	stw	r6,-12(fp)
    2a5c:	3807883a 	mov	r3,r7
    2a60:	e0800417 	ldw	r2,16(fp)
    2a64:	e13ffb05 	stb	r4,-20(fp)
    2a68:	e0fffe0d 	sth	r3,-8(fp)
    2a6c:	e0bfff0d 	sth	r2,-4(fp)
    2a70:	e03ff415 	stw	zero,-48(fp)
    2a74:	0005303a 	rdctl	r2,status
    2a78:	e0bffa15 	stw	r2,-24(fp)
    2a7c:	e0fffa17 	ldw	r3,-24(fp)
    2a80:	00bfff84 	movi	r2,-2
    2a84:	1884703a 	and	r2,r3,r2
    2a88:	1001703a 	wrctl	status,r2
    2a8c:	e0bffa17 	ldw	r2,-24(fp)
    2a90:	e0bff415 	stw	r2,-48(fp)
    2a94:	d0a6bb17 	ldw	r2,-25876(gp)
    2a98:	e0bff615 	stw	r2,-40(fp)
    2a9c:	e0bff617 	ldw	r2,-40(fp)
    2aa0:	10009326 	beq	r2,zero,2cf0 <OS_TCBInit+0x2ac>
    2aa4:	e0bff617 	ldw	r2,-40(fp)
    2aa8:	10800517 	ldw	r2,20(r2)
    2aac:	d0a6bb15 	stw	r2,-25876(gp)
    2ab0:	e0bff417 	ldw	r2,-48(fp)
    2ab4:	e0bff815 	stw	r2,-32(fp)
    2ab8:	e0bff817 	ldw	r2,-32(fp)
    2abc:	1001703a 	wrctl	status,r2
    2ac0:	e0bff617 	ldw	r2,-40(fp)
    2ac4:	e0fffc17 	ldw	r3,-16(fp)
    2ac8:	10c00015 	stw	r3,0(r2)
    2acc:	e0bff617 	ldw	r2,-40(fp)
    2ad0:	e0fffb03 	ldbu	r3,-20(fp)
    2ad4:	10c00c85 	stb	r3,50(r2)
    2ad8:	e0bff617 	ldw	r2,-40(fp)
    2adc:	10000c05 	stb	zero,48(r2)
    2ae0:	e0bff617 	ldw	r2,-40(fp)
    2ae4:	10000c45 	stb	zero,49(r2)
    2ae8:	e0bff617 	ldw	r2,-40(fp)
    2aec:	10000b8d 	sth	zero,46(r2)
    2af0:	e0bff617 	ldw	r2,-40(fp)
    2af4:	e0c00317 	ldw	r3,12(fp)
    2af8:	10c00115 	stw	r3,4(r2)
    2afc:	e0bff617 	ldw	r2,-40(fp)
    2b00:	e0c00217 	ldw	r3,8(fp)
    2b04:	10c00315 	stw	r3,12(r2)
    2b08:	e0bff617 	ldw	r2,-40(fp)
    2b0c:	e0fffd17 	ldw	r3,-12(fp)
    2b10:	10c00215 	stw	r3,8(r2)
    2b14:	e0bff617 	ldw	r2,-40(fp)
    2b18:	e0ffff0b 	ldhu	r3,-4(fp)
    2b1c:	10c0040d 	sth	r3,16(r2)
    2b20:	e0bff617 	ldw	r2,-40(fp)
    2b24:	e0fffe0b 	ldhu	r3,-8(fp)
    2b28:	10c0048d 	sth	r3,18(r2)
    2b2c:	e0bff617 	ldw	r2,-40(fp)
    2b30:	10000dc5 	stb	zero,55(r2)
    2b34:	e0bffb03 	ldbu	r2,-20(fp)
    2b38:	1004d0fa 	srli	r2,r2,3
    2b3c:	1007883a 	mov	r3,r2
    2b40:	e0bff617 	ldw	r2,-40(fp)
    2b44:	10c00d05 	stb	r3,52(r2)
    2b48:	e0bffb03 	ldbu	r2,-20(fp)
    2b4c:	108001cc 	andi	r2,r2,7
    2b50:	1007883a 	mov	r3,r2
    2b54:	e0bff617 	ldw	r2,-40(fp)
    2b58:	10c00cc5 	stb	r3,51(r2)
    2b5c:	e0bff617 	ldw	r2,-40(fp)
    2b60:	10800d03 	ldbu	r2,52(r2)
    2b64:	10803fcc 	andi	r2,r2,255
    2b68:	00c00044 	movi	r3,1
    2b6c:	1884983a 	sll	r2,r3,r2
    2b70:	1007883a 	mov	r3,r2
    2b74:	e0bff617 	ldw	r2,-40(fp)
    2b78:	10c00d85 	stb	r3,54(r2)
    2b7c:	e0bff617 	ldw	r2,-40(fp)
    2b80:	10800cc3 	ldbu	r2,51(r2)
    2b84:	10803fcc 	andi	r2,r2,255
    2b88:	00c00044 	movi	r3,1
    2b8c:	1884983a 	sll	r2,r3,r2
    2b90:	1007883a 	mov	r3,r2
    2b94:	e0bff617 	ldw	r2,-40(fp)
    2b98:	10c00d45 	stb	r3,53(r2)
    2b9c:	e0bff617 	ldw	r2,-40(fp)
    2ba0:	10000715 	stw	zero,28(r2)
    2ba4:	e0bff617 	ldw	r2,-40(fp)
    2ba8:	10000815 	stw	zero,32(r2)
    2bac:	e0bff617 	ldw	r2,-40(fp)
    2bb0:	10000a15 	stw	zero,40(r2)
    2bb4:	e0bff617 	ldw	r2,-40(fp)
    2bb8:	10000915 	stw	zero,36(r2)
    2bbc:	e0bff617 	ldw	r2,-40(fp)
    2bc0:	10000e15 	stw	zero,56(r2)
    2bc4:	e0bff617 	ldw	r2,-40(fp)
    2bc8:	10001015 	stw	zero,64(r2)
    2bcc:	e0bff617 	ldw	r2,-40(fp)
    2bd0:	10000f15 	stw	zero,60(r2)
    2bd4:	e0bff617 	ldw	r2,-40(fp)
    2bd8:	10001115 	stw	zero,68(r2)
    2bdc:	e0bff617 	ldw	r2,-40(fp)
    2be0:	10001215 	stw	zero,72(r2)
    2be4:	e0bff617 	ldw	r2,-40(fp)
    2be8:	00c00fc4 	movi	r3,63
    2bec:	10c01305 	stb	r3,76(r2)
    2bf0:	e0bff617 	ldw	r2,-40(fp)
    2bf4:	10001345 	stb	zero,77(r2)
    2bf8:	e13ff617 	ldw	r4,-40(fp)
    2bfc:	000bedc0 	call	bedc <OSTCBInitHook>
    2c00:	e13ff617 	ldw	r4,-40(fp)
    2c04:	000bdd40 	call	bdd4 <OSTaskCreateHook>
    2c08:	0005303a 	rdctl	r2,status
    2c0c:	e0bff515 	stw	r2,-44(fp)
    2c10:	e0fff517 	ldw	r3,-44(fp)
    2c14:	00bfff84 	movi	r2,-2
    2c18:	1884703a 	and	r2,r3,r2
    2c1c:	1001703a 	wrctl	status,r2
    2c20:	e0bff517 	ldw	r2,-44(fp)
    2c24:	e0bff415 	stw	r2,-48(fp)
    2c28:	e0fffb03 	ldbu	r3,-20(fp)
    2c2c:	00800074 	movhi	r2,1
    2c30:	109c6604 	addi	r2,r2,29080
    2c34:	18c7883a 	add	r3,r3,r3
    2c38:	18c7883a 	add	r3,r3,r3
    2c3c:	10c5883a 	add	r2,r2,r3
    2c40:	e0fff617 	ldw	r3,-40(fp)
    2c44:	10c00015 	stw	r3,0(r2)
    2c48:	d0e6b717 	ldw	r3,-25892(gp)
    2c4c:	e0bff617 	ldw	r2,-40(fp)
    2c50:	10c00515 	stw	r3,20(r2)
    2c54:	e0bff617 	ldw	r2,-40(fp)
    2c58:	10000615 	stw	zero,24(r2)
    2c5c:	d0a6b717 	ldw	r2,-25892(gp)
    2c60:	10000326 	beq	r2,zero,2c70 <OS_TCBInit+0x22c>
    2c64:	d0a6b717 	ldw	r2,-25892(gp)
    2c68:	e0fff617 	ldw	r3,-40(fp)
    2c6c:	10c00615 	stw	r3,24(r2)
    2c70:	e0bff617 	ldw	r2,-40(fp)
    2c74:	d0a6b715 	stw	r2,-25892(gp)
    2c78:	e0bff617 	ldw	r2,-40(fp)
    2c7c:	10c00d83 	ldbu	r3,54(r2)
    2c80:	d0a6c003 	ldbu	r2,-25856(gp)
    2c84:	1884b03a 	or	r2,r3,r2
    2c88:	d0a6c005 	stb	r2,-25856(gp)
    2c8c:	e0bff617 	ldw	r2,-40(fp)
    2c90:	10800d03 	ldbu	r2,52(r2)
    2c94:	10c03fcc 	andi	r3,r2,255
    2c98:	e0bff617 	ldw	r2,-40(fp)
    2c9c:	10800d03 	ldbu	r2,52(r2)
    2ca0:	11003fcc 	andi	r4,r2,255
    2ca4:	d0a6c044 	addi	r2,gp,-25855
    2ca8:	2085883a 	add	r2,r4,r2
    2cac:	11000003 	ldbu	r4,0(r2)
    2cb0:	e0bff617 	ldw	r2,-40(fp)
    2cb4:	10800d43 	ldbu	r2,53(r2)
    2cb8:	2084b03a 	or	r2,r4,r2
    2cbc:	1009883a 	mov	r4,r2
    2cc0:	d0a6c044 	addi	r2,gp,-25855
    2cc4:	1885883a 	add	r2,r3,r2
    2cc8:	11000005 	stb	r4,0(r2)
    2ccc:	d0a6bc43 	ldbu	r2,-25871(gp)
    2cd0:	10800044 	addi	r2,r2,1
    2cd4:	d0a6bc45 	stb	r2,-25871(gp)
    2cd8:	e0bff417 	ldw	r2,-48(fp)
    2cdc:	e0bff715 	stw	r2,-36(fp)
    2ce0:	e0bff717 	ldw	r2,-36(fp)
    2ce4:	1001703a 	wrctl	status,r2
    2ce8:	0005883a 	mov	r2,zero
    2cec:	00000506 	br	2d04 <OS_TCBInit+0x2c0>
    2cf0:	e0bff417 	ldw	r2,-48(fp)
    2cf4:	e0bff915 	stw	r2,-28(fp)
    2cf8:	e0bff917 	ldw	r2,-28(fp)
    2cfc:	1001703a 	wrctl	status,r2
    2d00:	00801084 	movi	r2,66
    2d04:	e037883a 	mov	sp,fp
    2d08:	dfc00117 	ldw	ra,4(sp)
    2d0c:	df000017 	ldw	fp,0(sp)
    2d10:	dec00204 	addi	sp,sp,8
    2d14:	f800283a 	ret

00002d18 <OSDebugInit>:
    2d18:	defffe04 	addi	sp,sp,-8
    2d1c:	df000115 	stw	fp,4(sp)
    2d20:	df000104 	addi	fp,sp,4
    2d24:	d0a00204 	addi	r2,gp,-32760
    2d28:	e0bfff15 	stw	r2,-4(fp)
    2d2c:	d0a00304 	addi	r2,gp,-32756
    2d30:	e0bfff15 	stw	r2,-4(fp)
    2d34:	d0a00484 	addi	r2,gp,-32750
    2d38:	e0bfff15 	stw	r2,-4(fp)
    2d3c:	d0a00504 	addi	r2,gp,-32748
    2d40:	e0bfff15 	stw	r2,-4(fp)
    2d44:	d0a00404 	addi	r2,gp,-32752
    2d48:	e0bfff15 	stw	r2,-4(fp)
    2d4c:	d0a00584 	addi	r2,gp,-32746
    2d50:	e0bfff15 	stw	r2,-4(fp)
    2d54:	d0a00604 	addi	r2,gp,-32744
    2d58:	e0bfff15 	stw	r2,-4(fp)
    2d5c:	d0a00684 	addi	r2,gp,-32742
    2d60:	e0bfff15 	stw	r2,-4(fp)
    2d64:	d0a00704 	addi	r2,gp,-32740
    2d68:	e0bfff15 	stw	r2,-4(fp)
    2d6c:	d0a00784 	addi	r2,gp,-32738
    2d70:	e0bfff15 	stw	r2,-4(fp)
    2d74:	d0a00804 	addi	r2,gp,-32736
    2d78:	e0bfff15 	stw	r2,-4(fp)
    2d7c:	d0a00884 	addi	r2,gp,-32734
    2d80:	e0bfff15 	stw	r2,-4(fp)
    2d84:	d0a00904 	addi	r2,gp,-32732
    2d88:	e0bfff15 	stw	r2,-4(fp)
    2d8c:	d0a00984 	addi	r2,gp,-32730
    2d90:	e0bfff15 	stw	r2,-4(fp)
    2d94:	d0a00a04 	addi	r2,gp,-32728
    2d98:	e0bfff15 	stw	r2,-4(fp)
    2d9c:	d0a00a84 	addi	r2,gp,-32726
    2da0:	e0bfff15 	stw	r2,-4(fp)
    2da4:	d0a00b04 	addi	r2,gp,-32724
    2da8:	e0bfff15 	stw	r2,-4(fp)
    2dac:	d0a00b84 	addi	r2,gp,-32722
    2db0:	e0bfff15 	stw	r2,-4(fp)
    2db4:	d0a00c04 	addi	r2,gp,-32720
    2db8:	e0bfff15 	stw	r2,-4(fp)
    2dbc:	d0a00c84 	addi	r2,gp,-32718
    2dc0:	e0bfff15 	stw	r2,-4(fp)
    2dc4:	d0a00d04 	addi	r2,gp,-32716
    2dc8:	e0bfff15 	stw	r2,-4(fp)
    2dcc:	d0a00d84 	addi	r2,gp,-32714
    2dd0:	e0bfff15 	stw	r2,-4(fp)
    2dd4:	d0a00e04 	addi	r2,gp,-32712
    2dd8:	e0bfff15 	stw	r2,-4(fp)
    2ddc:	d0a00e84 	addi	r2,gp,-32710
    2de0:	e0bfff15 	stw	r2,-4(fp)
    2de4:	d0a00f04 	addi	r2,gp,-32708
    2de8:	e0bfff15 	stw	r2,-4(fp)
    2dec:	d0a00f84 	addi	r2,gp,-32706
    2df0:	e0bfff15 	stw	r2,-4(fp)
    2df4:	d0a01004 	addi	r2,gp,-32704
    2df8:	e0bfff15 	stw	r2,-4(fp)
    2dfc:	d0a01084 	addi	r2,gp,-32702
    2e00:	e0bfff15 	stw	r2,-4(fp)
    2e04:	d0a01104 	addi	r2,gp,-32700
    2e08:	e0bfff15 	stw	r2,-4(fp)
    2e0c:	d0a01184 	addi	r2,gp,-32698
    2e10:	e0bfff15 	stw	r2,-4(fp)
    2e14:	d0a01204 	addi	r2,gp,-32696
    2e18:	e0bfff15 	stw	r2,-4(fp)
    2e1c:	d0a01284 	addi	r2,gp,-32694
    2e20:	e0bfff15 	stw	r2,-4(fp)
    2e24:	d0a01304 	addi	r2,gp,-32692
    2e28:	e0bfff15 	stw	r2,-4(fp)
    2e2c:	d0a01384 	addi	r2,gp,-32690
    2e30:	e0bfff15 	stw	r2,-4(fp)
    2e34:	d0a01404 	addi	r2,gp,-32688
    2e38:	e0bfff15 	stw	r2,-4(fp)
    2e3c:	d0a01484 	addi	r2,gp,-32686
    2e40:	e0bfff15 	stw	r2,-4(fp)
    2e44:	d0a01504 	addi	r2,gp,-32684
    2e48:	e0bfff15 	stw	r2,-4(fp)
    2e4c:	d0a01584 	addi	r2,gp,-32682
    2e50:	e0bfff15 	stw	r2,-4(fp)
    2e54:	d0a01604 	addi	r2,gp,-32680
    2e58:	e0bfff15 	stw	r2,-4(fp)
    2e5c:	d0a01684 	addi	r2,gp,-32678
    2e60:	e0bfff15 	stw	r2,-4(fp)
    2e64:	d0a01704 	addi	r2,gp,-32676
    2e68:	e0bfff15 	stw	r2,-4(fp)
    2e6c:	d0a01784 	addi	r2,gp,-32674
    2e70:	e0bfff15 	stw	r2,-4(fp)
    2e74:	d0a01804 	addi	r2,gp,-32672
    2e78:	e0bfff15 	stw	r2,-4(fp)
    2e7c:	d0a01884 	addi	r2,gp,-32670
    2e80:	e0bfff15 	stw	r2,-4(fp)
    2e84:	d0a01904 	addi	r2,gp,-32668
    2e88:	e0bfff15 	stw	r2,-4(fp)
    2e8c:	d0a01e04 	addi	r2,gp,-32648
    2e90:	e0bfff15 	stw	r2,-4(fp)
    2e94:	0001883a 	nop
    2e98:	e037883a 	mov	sp,fp
    2e9c:	df000017 	ldw	fp,0(sp)
    2ea0:	dec00104 	addi	sp,sp,4
    2ea4:	f800283a 	ret

00002ea8 <OSFlagAccept>:
    2ea8:	defff204 	addi	sp,sp,-56
    2eac:	df000d15 	stw	fp,52(sp)
    2eb0:	df000d04 	addi	fp,sp,52
    2eb4:	e13ffc15 	stw	r4,-16(fp)
    2eb8:	2807883a 	mov	r3,r5
    2ebc:	3005883a 	mov	r2,r6
    2ec0:	e1ffff15 	stw	r7,-4(fp)
    2ec4:	e0fffd0d 	sth	r3,-12(fp)
    2ec8:	e0bffe05 	stb	r2,-8(fp)
    2ecc:	e03ff415 	stw	zero,-48(fp)
    2ed0:	e0bfff17 	ldw	r2,-4(fp)
    2ed4:	1000021e 	bne	r2,zero,2ee0 <OSFlagAccept+0x38>
    2ed8:	0005883a 	mov	r2,zero
    2edc:	0000b006 	br	31a0 <OSFlagAccept+0x2f8>
    2ee0:	e0bffc17 	ldw	r2,-16(fp)
    2ee4:	1000051e 	bne	r2,zero,2efc <OSFlagAccept+0x54>
    2ee8:	e0bfff17 	ldw	r2,-4(fp)
    2eec:	00c01b84 	movi	r3,110
    2ef0:	10c00005 	stb	r3,0(r2)
    2ef4:	0005883a 	mov	r2,zero
    2ef8:	0000a906 	br	31a0 <OSFlagAccept+0x2f8>
    2efc:	e0bffc17 	ldw	r2,-16(fp)
    2f00:	10800003 	ldbu	r2,0(r2)
    2f04:	10803fcc 	andi	r2,r2,255
    2f08:	10800160 	cmpeqi	r2,r2,5
    2f0c:	1000051e 	bne	r2,zero,2f24 <OSFlagAccept+0x7c>
    2f10:	e0bfff17 	ldw	r2,-4(fp)
    2f14:	00c00044 	movi	r3,1
    2f18:	10c00005 	stb	r3,0(r2)
    2f1c:	0005883a 	mov	r2,zero
    2f20:	00009f06 	br	31a0 <OSFlagAccept+0x2f8>
    2f24:	e0fffe03 	ldbu	r3,-8(fp)
    2f28:	00bfe004 	movi	r2,-128
    2f2c:	1884703a 	and	r2,r3,r2
    2f30:	e0bff505 	stb	r2,-44(fp)
    2f34:	e0bff503 	ldbu	r2,-44(fp)
    2f38:	10000626 	beq	r2,zero,2f54 <OSFlagAccept+0xac>
    2f3c:	e0bffe03 	ldbu	r2,-8(fp)
    2f40:	10801fcc 	andi	r2,r2,127
    2f44:	e0bffe05 	stb	r2,-8(fp)
    2f48:	00800044 	movi	r2,1
    2f4c:	e0bff385 	stb	r2,-50(fp)
    2f50:	00000106 	br	2f58 <OSFlagAccept+0xb0>
    2f54:	e03ff385 	stb	zero,-50(fp)
    2f58:	e0bfff17 	ldw	r2,-4(fp)
    2f5c:	10000005 	stb	zero,0(r2)
    2f60:	0005303a 	rdctl	r2,status
    2f64:	e0bffb15 	stw	r2,-20(fp)
    2f68:	e0fffb17 	ldw	r3,-20(fp)
    2f6c:	00bfff84 	movi	r2,-2
    2f70:	1884703a 	and	r2,r3,r2
    2f74:	1001703a 	wrctl	status,r2
    2f78:	e0bffb17 	ldw	r2,-20(fp)
    2f7c:	e0bff415 	stw	r2,-48(fp)
    2f80:	e0bffe03 	ldbu	r2,-8(fp)
    2f84:	10c00060 	cmpeqi	r3,r2,1
    2f88:	18005f1e 	bne	r3,zero,3108 <OSFlagAccept+0x260>
    2f8c:	10c00088 	cmpgei	r3,r2,2
    2f90:	1800021e 	bne	r3,zero,2f9c <OSFlagAccept+0xf4>
    2f94:	10003f26 	beq	r2,zero,3094 <OSFlagAccept+0x1ec>
    2f98:	00007706 	br	3178 <OSFlagAccept+0x2d0>
    2f9c:	10c000a0 	cmpeqi	r3,r2,2
    2fa0:	1800031e 	bne	r3,zero,2fb0 <OSFlagAccept+0x108>
    2fa4:	108000e0 	cmpeqi	r2,r2,3
    2fa8:	10001e1e 	bne	r2,zero,3024 <OSFlagAccept+0x17c>
    2fac:	00007206 	br	3178 <OSFlagAccept+0x2d0>
    2fb0:	e0bffc17 	ldw	r2,-16(fp)
    2fb4:	10c0020b 	ldhu	r3,8(r2)
    2fb8:	e0bffd0b 	ldhu	r2,-12(fp)
    2fbc:	1884703a 	and	r2,r3,r2
    2fc0:	e0bff30d 	sth	r2,-52(fp)
    2fc4:	e0fff30b 	ldhu	r3,-52(fp)
    2fc8:	e0bffd0b 	ldhu	r2,-12(fp)
    2fcc:	18800d1e 	bne	r3,r2,3004 <OSFlagAccept+0x15c>
    2fd0:	e0bff383 	ldbu	r2,-50(fp)
    2fd4:	10800058 	cmpnei	r2,r2,1
    2fd8:	10000d1e 	bne	r2,zero,3010 <OSFlagAccept+0x168>
    2fdc:	e0bffc17 	ldw	r2,-16(fp)
    2fe0:	1080020b 	ldhu	r2,8(r2)
    2fe4:	1007883a 	mov	r3,r2
    2fe8:	e0bff30b 	ldhu	r2,-52(fp)
    2fec:	0084303a 	nor	r2,zero,r2
    2ff0:	1884703a 	and	r2,r3,r2
    2ff4:	1007883a 	mov	r3,r2
    2ff8:	e0bffc17 	ldw	r2,-16(fp)
    2ffc:	10c0020d 	sth	r3,8(r2)
    3000:	00000306 	br	3010 <OSFlagAccept+0x168>
    3004:	e0bfff17 	ldw	r2,-4(fp)
    3008:	00c01c04 	movi	r3,112
    300c:	10c00005 	stb	r3,0(r2)
    3010:	e0bff417 	ldw	r2,-48(fp)
    3014:	e0bff615 	stw	r2,-40(fp)
    3018:	e0bff617 	ldw	r2,-40(fp)
    301c:	1001703a 	wrctl	status,r2
    3020:	00005e06 	br	319c <OSFlagAccept+0x2f4>
    3024:	e0bffc17 	ldw	r2,-16(fp)
    3028:	10c0020b 	ldhu	r3,8(r2)
    302c:	e0bffd0b 	ldhu	r2,-12(fp)
    3030:	1884703a 	and	r2,r3,r2
    3034:	e0bff30d 	sth	r2,-52(fp)
    3038:	e0bff30b 	ldhu	r2,-52(fp)
    303c:	10000d26 	beq	r2,zero,3074 <OSFlagAccept+0x1cc>
    3040:	e0bff383 	ldbu	r2,-50(fp)
    3044:	10800058 	cmpnei	r2,r2,1
    3048:	10000d1e 	bne	r2,zero,3080 <OSFlagAccept+0x1d8>
    304c:	e0bffc17 	ldw	r2,-16(fp)
    3050:	1080020b 	ldhu	r2,8(r2)
    3054:	1007883a 	mov	r3,r2
    3058:	e0bff30b 	ldhu	r2,-52(fp)
    305c:	0084303a 	nor	r2,zero,r2
    3060:	1884703a 	and	r2,r3,r2
    3064:	1007883a 	mov	r3,r2
    3068:	e0bffc17 	ldw	r2,-16(fp)
    306c:	10c0020d 	sth	r3,8(r2)
    3070:	00000306 	br	3080 <OSFlagAccept+0x1d8>
    3074:	e0bfff17 	ldw	r2,-4(fp)
    3078:	00c01c04 	movi	r3,112
    307c:	10c00005 	stb	r3,0(r2)
    3080:	e0bff417 	ldw	r2,-48(fp)
    3084:	e0bff715 	stw	r2,-36(fp)
    3088:	e0bff717 	ldw	r2,-36(fp)
    308c:	1001703a 	wrctl	status,r2
    3090:	00004206 	br	319c <OSFlagAccept+0x2f4>
    3094:	e0bffc17 	ldw	r2,-16(fp)
    3098:	1080020b 	ldhu	r2,8(r2)
    309c:	0084303a 	nor	r2,zero,r2
    30a0:	1007883a 	mov	r3,r2
    30a4:	e0bffd0b 	ldhu	r2,-12(fp)
    30a8:	1884703a 	and	r2,r3,r2
    30ac:	e0bff30d 	sth	r2,-52(fp)
    30b0:	e0fff30b 	ldhu	r3,-52(fp)
    30b4:	e0bffd0b 	ldhu	r2,-12(fp)
    30b8:	18800b1e 	bne	r3,r2,30e8 <OSFlagAccept+0x240>
    30bc:	e0bff383 	ldbu	r2,-50(fp)
    30c0:	10800058 	cmpnei	r2,r2,1
    30c4:	10000b1e 	bne	r2,zero,30f4 <OSFlagAccept+0x24c>
    30c8:	e0bffc17 	ldw	r2,-16(fp)
    30cc:	10c0020b 	ldhu	r3,8(r2)
    30d0:	e0bff30b 	ldhu	r2,-52(fp)
    30d4:	1884b03a 	or	r2,r3,r2
    30d8:	1007883a 	mov	r3,r2
    30dc:	e0bffc17 	ldw	r2,-16(fp)
    30e0:	10c0020d 	sth	r3,8(r2)
    30e4:	00000306 	br	30f4 <OSFlagAccept+0x24c>
    30e8:	e0bfff17 	ldw	r2,-4(fp)
    30ec:	00c01c04 	movi	r3,112
    30f0:	10c00005 	stb	r3,0(r2)
    30f4:	e0bff417 	ldw	r2,-48(fp)
    30f8:	e0bff815 	stw	r2,-32(fp)
    30fc:	e0bff817 	ldw	r2,-32(fp)
    3100:	1001703a 	wrctl	status,r2
    3104:	00002506 	br	319c <OSFlagAccept+0x2f4>
    3108:	e0bffc17 	ldw	r2,-16(fp)
    310c:	1080020b 	ldhu	r2,8(r2)
    3110:	0084303a 	nor	r2,zero,r2
    3114:	1007883a 	mov	r3,r2
    3118:	e0bffd0b 	ldhu	r2,-12(fp)
    311c:	1884703a 	and	r2,r3,r2
    3120:	e0bff30d 	sth	r2,-52(fp)
    3124:	e0bff30b 	ldhu	r2,-52(fp)
    3128:	10000b26 	beq	r2,zero,3158 <OSFlagAccept+0x2b0>
    312c:	e0bff383 	ldbu	r2,-50(fp)
    3130:	10800058 	cmpnei	r2,r2,1
    3134:	10000b1e 	bne	r2,zero,3164 <OSFlagAccept+0x2bc>
    3138:	e0bffc17 	ldw	r2,-16(fp)
    313c:	10c0020b 	ldhu	r3,8(r2)
    3140:	e0bff30b 	ldhu	r2,-52(fp)
    3144:	1884b03a 	or	r2,r3,r2
    3148:	1007883a 	mov	r3,r2
    314c:	e0bffc17 	ldw	r2,-16(fp)
    3150:	10c0020d 	sth	r3,8(r2)
    3154:	00000306 	br	3164 <OSFlagAccept+0x2bc>
    3158:	e0bfff17 	ldw	r2,-4(fp)
    315c:	00c01c04 	movi	r3,112
    3160:	10c00005 	stb	r3,0(r2)
    3164:	e0bff417 	ldw	r2,-48(fp)
    3168:	e0bff915 	stw	r2,-28(fp)
    316c:	e0bff917 	ldw	r2,-28(fp)
    3170:	1001703a 	wrctl	status,r2
    3174:	00000906 	br	319c <OSFlagAccept+0x2f4>
    3178:	e0bff417 	ldw	r2,-48(fp)
    317c:	e0bffa15 	stw	r2,-24(fp)
    3180:	e0bffa17 	ldw	r2,-24(fp)
    3184:	1001703a 	wrctl	status,r2
    3188:	e03ff30d 	sth	zero,-52(fp)
    318c:	e0bfff17 	ldw	r2,-4(fp)
    3190:	00c01bc4 	movi	r3,111
    3194:	10c00005 	stb	r3,0(r2)
    3198:	0001883a 	nop
    319c:	e0bff30b 	ldhu	r2,-52(fp)
    31a0:	e037883a 	mov	sp,fp
    31a4:	df000017 	ldw	fp,0(sp)
    31a8:	dec00104 	addi	sp,sp,4
    31ac:	f800283a 	ret

000031b0 <OSFlagCreate>:
    31b0:	defff804 	addi	sp,sp,-32
    31b4:	df000715 	stw	fp,28(sp)
    31b8:	df000704 	addi	fp,sp,28
    31bc:	2005883a 	mov	r2,r4
    31c0:	e17fff15 	stw	r5,-4(fp)
    31c4:	e0bffe0d 	sth	r2,-8(fp)
    31c8:	e03ff915 	stw	zero,-28(fp)
    31cc:	e0bfff17 	ldw	r2,-4(fp)
    31d0:	1000021e 	bne	r2,zero,31dc <OSFlagCreate+0x2c>
    31d4:	0005883a 	mov	r2,zero
    31d8:	00003306 	br	32a8 <OSFlagCreate+0xf8>
    31dc:	d0a6c203 	ldbu	r2,-25848(gp)
    31e0:	10803fcc 	andi	r2,r2,255
    31e4:	10000526 	beq	r2,zero,31fc <OSFlagCreate+0x4c>
    31e8:	e0bfff17 	ldw	r2,-4(fp)
    31ec:	00c00404 	movi	r3,16
    31f0:	10c00005 	stb	r3,0(r2)
    31f4:	0005883a 	mov	r2,zero
    31f8:	00002b06 	br	32a8 <OSFlagCreate+0xf8>
    31fc:	0005303a 	rdctl	r2,status
    3200:	e0bffd15 	stw	r2,-12(fp)
    3204:	e0fffd17 	ldw	r3,-12(fp)
    3208:	00bfff84 	movi	r2,-2
    320c:	1884703a 	and	r2,r3,r2
    3210:	1001703a 	wrctl	status,r2
    3214:	e0bffd17 	ldw	r2,-12(fp)
    3218:	e0bff915 	stw	r2,-28(fp)
    321c:	d0a6c517 	ldw	r2,-25836(gp)
    3220:	e0bffb15 	stw	r2,-20(fp)
    3224:	e0bffb17 	ldw	r2,-20(fp)
    3228:	10001726 	beq	r2,zero,3288 <OSFlagCreate+0xd8>
    322c:	d0a6c517 	ldw	r2,-25836(gp)
    3230:	10800117 	ldw	r2,4(r2)
    3234:	d0a6c515 	stw	r2,-25836(gp)
    3238:	e0bffb17 	ldw	r2,-20(fp)
    323c:	00c00144 	movi	r3,5
    3240:	10c00005 	stb	r3,0(r2)
    3244:	e0bffb17 	ldw	r2,-20(fp)
    3248:	e0fffe0b 	ldhu	r3,-8(fp)
    324c:	10c0020d 	sth	r3,8(r2)
    3250:	e0bffb17 	ldw	r2,-20(fp)
    3254:	10000115 	stw	zero,4(r2)
    3258:	e0bffb17 	ldw	r2,-20(fp)
    325c:	00c00fc4 	movi	r3,63
    3260:	10c00285 	stb	r3,10(r2)
    3264:	e0bffb17 	ldw	r2,-20(fp)
    3268:	100002c5 	stb	zero,11(r2)
    326c:	e0bff917 	ldw	r2,-28(fp)
    3270:	e0bffa15 	stw	r2,-24(fp)
    3274:	e0bffa17 	ldw	r2,-24(fp)
    3278:	1001703a 	wrctl	status,r2
    327c:	e0bfff17 	ldw	r2,-4(fp)
    3280:	10000005 	stb	zero,0(r2)
    3284:	00000706 	br	32a4 <OSFlagCreate+0xf4>
    3288:	e0bff917 	ldw	r2,-28(fp)
    328c:	e0bffc15 	stw	r2,-16(fp)
    3290:	e0bffc17 	ldw	r2,-16(fp)
    3294:	1001703a 	wrctl	status,r2
    3298:	e0bfff17 	ldw	r2,-4(fp)
    329c:	00c01c84 	movi	r3,114
    32a0:	10c00005 	stb	r3,0(r2)
    32a4:	e0bffb17 	ldw	r2,-20(fp)
    32a8:	e037883a 	mov	sp,fp
    32ac:	df000017 	ldw	fp,0(sp)
    32b0:	dec00104 	addi	sp,sp,4
    32b4:	f800283a 	ret

000032b8 <OSFlagDel>:
    32b8:	defff204 	addi	sp,sp,-56
    32bc:	dfc00d15 	stw	ra,52(sp)
    32c0:	df000c15 	stw	fp,48(sp)
    32c4:	df000c04 	addi	fp,sp,48
    32c8:	e13ffd15 	stw	r4,-12(fp)
    32cc:	2805883a 	mov	r2,r5
    32d0:	e1bfff15 	stw	r6,-4(fp)
    32d4:	e0bffe05 	stb	r2,-8(fp)
    32d8:	e03ff715 	stw	zero,-36(fp)
    32dc:	e0bfff17 	ldw	r2,-4(fp)
    32e0:	1000021e 	bne	r2,zero,32ec <OSFlagDel+0x34>
    32e4:	e0bffd17 	ldw	r2,-12(fp)
    32e8:	00008006 	br	34ec <OSFlagDel+0x234>
    32ec:	e0bffd17 	ldw	r2,-12(fp)
    32f0:	1000051e 	bne	r2,zero,3308 <OSFlagDel+0x50>
    32f4:	e0bfff17 	ldw	r2,-4(fp)
    32f8:	00c01b84 	movi	r3,110
    32fc:	10c00005 	stb	r3,0(r2)
    3300:	e0bffd17 	ldw	r2,-12(fp)
    3304:	00007906 	br	34ec <OSFlagDel+0x234>
    3308:	d0a6c203 	ldbu	r2,-25848(gp)
    330c:	10803fcc 	andi	r2,r2,255
    3310:	10000526 	beq	r2,zero,3328 <OSFlagDel+0x70>
    3314:	e0bfff17 	ldw	r2,-4(fp)
    3318:	00c003c4 	movi	r3,15
    331c:	10c00005 	stb	r3,0(r2)
    3320:	e0bffd17 	ldw	r2,-12(fp)
    3324:	00007106 	br	34ec <OSFlagDel+0x234>
    3328:	e0bffd17 	ldw	r2,-12(fp)
    332c:	10800003 	ldbu	r2,0(r2)
    3330:	10803fcc 	andi	r2,r2,255
    3334:	10800160 	cmpeqi	r2,r2,5
    3338:	1000051e 	bne	r2,zero,3350 <OSFlagDel+0x98>
    333c:	e0bfff17 	ldw	r2,-4(fp)
    3340:	00c00044 	movi	r3,1
    3344:	10c00005 	stb	r3,0(r2)
    3348:	e0bffd17 	ldw	r2,-12(fp)
    334c:	00006706 	br	34ec <OSFlagDel+0x234>
    3350:	0005303a 	rdctl	r2,status
    3354:	e0bffc15 	stw	r2,-16(fp)
    3358:	e0fffc17 	ldw	r3,-16(fp)
    335c:	00bfff84 	movi	r2,-2
    3360:	1884703a 	and	r2,r3,r2
    3364:	1001703a 	wrctl	status,r2
    3368:	e0bffc17 	ldw	r2,-16(fp)
    336c:	e0bff715 	stw	r2,-36(fp)
    3370:	e0bffd17 	ldw	r2,-12(fp)
    3374:	10800117 	ldw	r2,4(r2)
    3378:	10000326 	beq	r2,zero,3388 <OSFlagDel+0xd0>
    337c:	00800044 	movi	r2,1
    3380:	e0bff405 	stb	r2,-48(fp)
    3384:	00000106 	br	338c <OSFlagDel+0xd4>
    3388:	e03ff405 	stb	zero,-48(fp)
    338c:	e0bffe03 	ldbu	r2,-8(fp)
    3390:	10000326 	beq	r2,zero,33a0 <OSFlagDel+0xe8>
    3394:	10800060 	cmpeqi	r2,r2,1
    3398:	1000231e 	bne	r2,zero,3428 <OSFlagDel+0x170>
    339c:	00004806 	br	34c0 <OSFlagDel+0x208>
    33a0:	e0bff403 	ldbu	r2,-48(fp)
    33a4:	1000161e 	bne	r2,zero,3400 <OSFlagDel+0x148>
    33a8:	e0bffd17 	ldw	r2,-12(fp)
    33ac:	00c00fc4 	movi	r3,63
    33b0:	10c00285 	stb	r3,10(r2)
    33b4:	e0bffd17 	ldw	r2,-12(fp)
    33b8:	100002c5 	stb	zero,11(r2)
    33bc:	e0bffd17 	ldw	r2,-12(fp)
    33c0:	10000005 	stb	zero,0(r2)
    33c4:	d0e6c517 	ldw	r3,-25836(gp)
    33c8:	e0bffd17 	ldw	r2,-12(fp)
    33cc:	10c00115 	stw	r3,4(r2)
    33d0:	e0bffd17 	ldw	r2,-12(fp)
    33d4:	1000020d 	sth	zero,8(r2)
    33d8:	e0bffd17 	ldw	r2,-12(fp)
    33dc:	d0a6c515 	stw	r2,-25836(gp)
    33e0:	e0bff717 	ldw	r2,-36(fp)
    33e4:	e0bff815 	stw	r2,-32(fp)
    33e8:	e0bff817 	ldw	r2,-32(fp)
    33ec:	1001703a 	wrctl	status,r2
    33f0:	e0bfff17 	ldw	r2,-4(fp)
    33f4:	10000005 	stb	zero,0(r2)
    33f8:	e03ff615 	stw	zero,-40(fp)
    33fc:	00003a06 	br	34e8 <OSFlagDel+0x230>
    3400:	e0bff717 	ldw	r2,-36(fp)
    3404:	e0bff915 	stw	r2,-28(fp)
    3408:	e0bff917 	ldw	r2,-28(fp)
    340c:	1001703a 	wrctl	status,r2
    3410:	e0bfff17 	ldw	r2,-4(fp)
    3414:	00c01244 	movi	r3,73
    3418:	10c00005 	stb	r3,0(r2)
    341c:	e0bffd17 	ldw	r2,-12(fp)
    3420:	e0bff615 	stw	r2,-40(fp)
    3424:	00003006 	br	34e8 <OSFlagDel+0x230>
    3428:	e0bffd17 	ldw	r2,-12(fp)
    342c:	10800117 	ldw	r2,4(r2)
    3430:	e0bff515 	stw	r2,-44(fp)
    3434:	00000606 	br	3450 <OSFlagDel+0x198>
    3438:	000b883a 	mov	r5,zero
    343c:	e13ff517 	ldw	r4,-44(fp)
    3440:	00044240 	call	4424 <OS_FlagTaskRdy>
    3444:	e0bff517 	ldw	r2,-44(fp)
    3448:	10800017 	ldw	r2,0(r2)
    344c:	e0bff515 	stw	r2,-44(fp)
    3450:	e0bff517 	ldw	r2,-44(fp)
    3454:	103ff81e 	bne	r2,zero,3438 <OSFlagDel+0x180>
    3458:	e0bffd17 	ldw	r2,-12(fp)
    345c:	00c00fc4 	movi	r3,63
    3460:	10c00285 	stb	r3,10(r2)
    3464:	e0bffd17 	ldw	r2,-12(fp)
    3468:	100002c5 	stb	zero,11(r2)
    346c:	e0bffd17 	ldw	r2,-12(fp)
    3470:	10000005 	stb	zero,0(r2)
    3474:	d0e6c517 	ldw	r3,-25836(gp)
    3478:	e0bffd17 	ldw	r2,-12(fp)
    347c:	10c00115 	stw	r3,4(r2)
    3480:	e0bffd17 	ldw	r2,-12(fp)
    3484:	1000020d 	sth	zero,8(r2)
    3488:	e0bffd17 	ldw	r2,-12(fp)
    348c:	d0a6c515 	stw	r2,-25836(gp)
    3490:	e0bff717 	ldw	r2,-36(fp)
    3494:	e0bffa15 	stw	r2,-24(fp)
    3498:	e0bffa17 	ldw	r2,-24(fp)
    349c:	1001703a 	wrctl	status,r2
    34a0:	e0bff403 	ldbu	r2,-48(fp)
    34a4:	10800058 	cmpnei	r2,r2,1
    34a8:	1000011e 	bne	r2,zero,34b0 <OSFlagDel+0x1f8>
    34ac:	00026340 	call	2634 <OS_Sched>
    34b0:	e0bfff17 	ldw	r2,-4(fp)
    34b4:	10000005 	stb	zero,0(r2)
    34b8:	e03ff615 	stw	zero,-40(fp)
    34bc:	00000a06 	br	34e8 <OSFlagDel+0x230>
    34c0:	e0bff717 	ldw	r2,-36(fp)
    34c4:	e0bffb15 	stw	r2,-20(fp)
    34c8:	e0bffb17 	ldw	r2,-20(fp)
    34cc:	1001703a 	wrctl	status,r2
    34d0:	e0bfff17 	ldw	r2,-4(fp)
    34d4:	00c001c4 	movi	r3,7
    34d8:	10c00005 	stb	r3,0(r2)
    34dc:	e0bffd17 	ldw	r2,-12(fp)
    34e0:	e0bff615 	stw	r2,-40(fp)
    34e4:	0001883a 	nop
    34e8:	e0bff617 	ldw	r2,-40(fp)
    34ec:	e037883a 	mov	sp,fp
    34f0:	dfc00117 	ldw	ra,4(sp)
    34f4:	df000017 	ldw	fp,0(sp)
    34f8:	dec00204 	addi	sp,sp,8
    34fc:	f800283a 	ret

00003500 <OSFlagNameGet>:
    3500:	defff604 	addi	sp,sp,-40
    3504:	dfc00915 	stw	ra,36(sp)
    3508:	df000815 	stw	fp,32(sp)
    350c:	df000804 	addi	fp,sp,32
    3510:	e13ffd15 	stw	r4,-12(fp)
    3514:	e17ffe15 	stw	r5,-8(fp)
    3518:	e1bfff15 	stw	r6,-4(fp)
    351c:	e03ff815 	stw	zero,-32(fp)
    3520:	e0bfff17 	ldw	r2,-4(fp)
    3524:	1000021e 	bne	r2,zero,3530 <OSFlagNameGet+0x30>
    3528:	0005883a 	mov	r2,zero
    352c:	00003906 	br	3614 <OSFlagNameGet+0x114>
    3530:	e0bffd17 	ldw	r2,-12(fp)
    3534:	1000051e 	bne	r2,zero,354c <OSFlagNameGet+0x4c>
    3538:	e0bfff17 	ldw	r2,-4(fp)
    353c:	00c01b84 	movi	r3,110
    3540:	10c00005 	stb	r3,0(r2)
    3544:	0005883a 	mov	r2,zero
    3548:	00003206 	br	3614 <OSFlagNameGet+0x114>
    354c:	e0bffe17 	ldw	r2,-8(fp)
    3550:	1000051e 	bne	r2,zero,3568 <OSFlagNameGet+0x68>
    3554:	e0bfff17 	ldw	r2,-4(fp)
    3558:	00c00304 	movi	r3,12
    355c:	10c00005 	stb	r3,0(r2)
    3560:	0005883a 	mov	r2,zero
    3564:	00002b06 	br	3614 <OSFlagNameGet+0x114>
    3568:	d0a6c203 	ldbu	r2,-25848(gp)
    356c:	10803fcc 	andi	r2,r2,255
    3570:	10000526 	beq	r2,zero,3588 <OSFlagNameGet+0x88>
    3574:	e0bfff17 	ldw	r2,-4(fp)
    3578:	00c00444 	movi	r3,17
    357c:	10c00005 	stb	r3,0(r2)
    3580:	0005883a 	mov	r2,zero
    3584:	00002306 	br	3614 <OSFlagNameGet+0x114>
    3588:	0005303a 	rdctl	r2,status
    358c:	e0bffc15 	stw	r2,-16(fp)
    3590:	e0fffc17 	ldw	r3,-16(fp)
    3594:	00bfff84 	movi	r2,-2
    3598:	1884703a 	and	r2,r3,r2
    359c:	1001703a 	wrctl	status,r2
    35a0:	e0bffc17 	ldw	r2,-16(fp)
    35a4:	e0bff815 	stw	r2,-32(fp)
    35a8:	e0bffd17 	ldw	r2,-12(fp)
    35ac:	10800003 	ldbu	r2,0(r2)
    35b0:	10803fcc 	andi	r2,r2,255
    35b4:	10800160 	cmpeqi	r2,r2,5
    35b8:	1000091e 	bne	r2,zero,35e0 <OSFlagNameGet+0xe0>
    35bc:	e0bff817 	ldw	r2,-32(fp)
    35c0:	e0bff915 	stw	r2,-28(fp)
    35c4:	e0bff917 	ldw	r2,-28(fp)
    35c8:	1001703a 	wrctl	status,r2
    35cc:	e0bfff17 	ldw	r2,-4(fp)
    35d0:	00c00044 	movi	r3,1
    35d4:	10c00005 	stb	r3,0(r2)
    35d8:	0005883a 	mov	r2,zero
    35dc:	00000d06 	br	3614 <OSFlagNameGet+0x114>
    35e0:	e0bffd17 	ldw	r2,-12(fp)
    35e4:	10800284 	addi	r2,r2,10
    35e8:	100b883a 	mov	r5,r2
    35ec:	e13ffe17 	ldw	r4,-8(fp)
    35f0:	00027780 	call	2778 <OS_StrCopy>
    35f4:	e0bffb05 	stb	r2,-20(fp)
    35f8:	e0bff817 	ldw	r2,-32(fp)
    35fc:	e0bffa15 	stw	r2,-24(fp)
    3600:	e0bffa17 	ldw	r2,-24(fp)
    3604:	1001703a 	wrctl	status,r2
    3608:	e0bfff17 	ldw	r2,-4(fp)
    360c:	10000005 	stb	zero,0(r2)
    3610:	e0bffb03 	ldbu	r2,-20(fp)
    3614:	e037883a 	mov	sp,fp
    3618:	dfc00117 	ldw	ra,4(sp)
    361c:	df000017 	ldw	fp,0(sp)
    3620:	dec00204 	addi	sp,sp,8
    3624:	f800283a 	ret

00003628 <OSFlagNameSet>:
    3628:	defff504 	addi	sp,sp,-44
    362c:	dfc00a15 	stw	ra,40(sp)
    3630:	df000915 	stw	fp,36(sp)
    3634:	df000904 	addi	fp,sp,36
    3638:	e13ffd15 	stw	r4,-12(fp)
    363c:	e17ffe15 	stw	r5,-8(fp)
    3640:	e1bfff15 	stw	r6,-4(fp)
    3644:	e03ff715 	stw	zero,-36(fp)
    3648:	e0bfff17 	ldw	r2,-4(fp)
    364c:	10004326 	beq	r2,zero,375c <OSFlagNameSet+0x134>
    3650:	e0bffd17 	ldw	r2,-12(fp)
    3654:	1000041e 	bne	r2,zero,3668 <OSFlagNameSet+0x40>
    3658:	e0bfff17 	ldw	r2,-4(fp)
    365c:	00c01b84 	movi	r3,110
    3660:	10c00005 	stb	r3,0(r2)
    3664:	00003e06 	br	3760 <OSFlagNameSet+0x138>
    3668:	e0bffe17 	ldw	r2,-8(fp)
    366c:	1000041e 	bne	r2,zero,3680 <OSFlagNameSet+0x58>
    3670:	e0bfff17 	ldw	r2,-4(fp)
    3674:	00c00304 	movi	r3,12
    3678:	10c00005 	stb	r3,0(r2)
    367c:	00003806 	br	3760 <OSFlagNameSet+0x138>
    3680:	d0a6c203 	ldbu	r2,-25848(gp)
    3684:	10803fcc 	andi	r2,r2,255
    3688:	10000426 	beq	r2,zero,369c <OSFlagNameSet+0x74>
    368c:	e0bfff17 	ldw	r2,-4(fp)
    3690:	00c00484 	movi	r3,18
    3694:	10c00005 	stb	r3,0(r2)
    3698:	00003106 	br	3760 <OSFlagNameSet+0x138>
    369c:	0005303a 	rdctl	r2,status
    36a0:	e0bffc15 	stw	r2,-16(fp)
    36a4:	e0fffc17 	ldw	r3,-16(fp)
    36a8:	00bfff84 	movi	r2,-2
    36ac:	1884703a 	and	r2,r3,r2
    36b0:	1001703a 	wrctl	status,r2
    36b4:	e0bffc17 	ldw	r2,-16(fp)
    36b8:	e0bff715 	stw	r2,-36(fp)
    36bc:	e0bffd17 	ldw	r2,-12(fp)
    36c0:	10800003 	ldbu	r2,0(r2)
    36c4:	10803fcc 	andi	r2,r2,255
    36c8:	10800160 	cmpeqi	r2,r2,5
    36cc:	1000081e 	bne	r2,zero,36f0 <OSFlagNameSet+0xc8>
    36d0:	e0bff717 	ldw	r2,-36(fp)
    36d4:	e0bff815 	stw	r2,-32(fp)
    36d8:	e0bff817 	ldw	r2,-32(fp)
    36dc:	1001703a 	wrctl	status,r2
    36e0:	e0bfff17 	ldw	r2,-4(fp)
    36e4:	00c00044 	movi	r3,1
    36e8:	10c00005 	stb	r3,0(r2)
    36ec:	00001c06 	br	3760 <OSFlagNameSet+0x138>
    36f0:	e13ffe17 	ldw	r4,-8(fp)
    36f4:	00027ec0 	call	27ec <OS_StrLen>
    36f8:	e0bffa05 	stb	r2,-24(fp)
    36fc:	e0bffa03 	ldbu	r2,-24(fp)
    3700:	10800830 	cmpltui	r2,r2,32
    3704:	1000081e 	bne	r2,zero,3728 <OSFlagNameSet+0x100>
    3708:	e0bff717 	ldw	r2,-36(fp)
    370c:	e0bff915 	stw	r2,-28(fp)
    3710:	e0bff917 	ldw	r2,-28(fp)
    3714:	1001703a 	wrctl	status,r2
    3718:	e0bfff17 	ldw	r2,-4(fp)
    371c:	00c01cc4 	movi	r3,115
    3720:	10c00005 	stb	r3,0(r2)
    3724:	00000e06 	br	3760 <OSFlagNameSet+0x138>
    3728:	e0bffd17 	ldw	r2,-12(fp)
    372c:	10800284 	addi	r2,r2,10
    3730:	e17ffe17 	ldw	r5,-8(fp)
    3734:	1009883a 	mov	r4,r2
    3738:	00027780 	call	2778 <OS_StrCopy>
    373c:	e0bff717 	ldw	r2,-36(fp)
    3740:	e0bffb15 	stw	r2,-20(fp)
    3744:	e0bffb17 	ldw	r2,-20(fp)
    3748:	1001703a 	wrctl	status,r2
    374c:	e0bfff17 	ldw	r2,-4(fp)
    3750:	10000005 	stb	zero,0(r2)
    3754:	0001883a 	nop
    3758:	00000106 	br	3760 <OSFlagNameSet+0x138>
    375c:	0001883a 	nop
    3760:	e037883a 	mov	sp,fp
    3764:	dfc00117 	ldw	ra,4(sp)
    3768:	df000017 	ldw	fp,0(sp)
    376c:	dec00204 	addi	sp,sp,8
    3770:	f800283a 	ret

00003774 <OSFlagPend>:
    3774:	deffe104 	addi	sp,sp,-124
    3778:	dfc01e15 	stw	ra,120(sp)
    377c:	df001d15 	stw	fp,116(sp)
    3780:	df001d04 	addi	fp,sp,116
    3784:	e13ffc15 	stw	r4,-16(fp)
    3788:	2809883a 	mov	r4,r5
    378c:	3007883a 	mov	r3,r6
    3790:	3805883a 	mov	r2,r7
    3794:	e13ffd0d 	sth	r4,-12(fp)
    3798:	e0fffe05 	stb	r3,-8(fp)
    379c:	e0bfff0d 	sth	r2,-4(fp)
    37a0:	e03fe515 	stw	zero,-108(fp)
    37a4:	e0800217 	ldw	r2,8(fp)
    37a8:	1000021e 	bne	r2,zero,37b4 <OSFlagPend+0x40>
    37ac:	0005883a 	mov	r2,zero
    37b0:	00015906 	br	3d18 <OSFlagPend+0x5a4>
    37b4:	e0bffc17 	ldw	r2,-16(fp)
    37b8:	1000051e 	bne	r2,zero,37d0 <OSFlagPend+0x5c>
    37bc:	e0800217 	ldw	r2,8(fp)
    37c0:	00c01b84 	movi	r3,110
    37c4:	10c00005 	stb	r3,0(r2)
    37c8:	0005883a 	mov	r2,zero
    37cc:	00015206 	br	3d18 <OSFlagPend+0x5a4>
    37d0:	d0a6c203 	ldbu	r2,-25848(gp)
    37d4:	10803fcc 	andi	r2,r2,255
    37d8:	10000526 	beq	r2,zero,37f0 <OSFlagPend+0x7c>
    37dc:	e0800217 	ldw	r2,8(fp)
    37e0:	00c00084 	movi	r3,2
    37e4:	10c00005 	stb	r3,0(r2)
    37e8:	0005883a 	mov	r2,zero
    37ec:	00014a06 	br	3d18 <OSFlagPend+0x5a4>
    37f0:	d0a6b403 	ldbu	r2,-25904(gp)
    37f4:	10803fcc 	andi	r2,r2,255
    37f8:	10000526 	beq	r2,zero,3810 <OSFlagPend+0x9c>
    37fc:	e0800217 	ldw	r2,8(fp)
    3800:	00c00344 	movi	r3,13
    3804:	10c00005 	stb	r3,0(r2)
    3808:	0005883a 	mov	r2,zero
    380c:	00014206 	br	3d18 <OSFlagPend+0x5a4>
    3810:	e0bffc17 	ldw	r2,-16(fp)
    3814:	10800003 	ldbu	r2,0(r2)
    3818:	10803fcc 	andi	r2,r2,255
    381c:	10800160 	cmpeqi	r2,r2,5
    3820:	1000051e 	bne	r2,zero,3838 <OSFlagPend+0xc4>
    3824:	e0800217 	ldw	r2,8(fp)
    3828:	00c00044 	movi	r3,1
    382c:	10c00005 	stb	r3,0(r2)
    3830:	0005883a 	mov	r2,zero
    3834:	00013806 	br	3d18 <OSFlagPend+0x5a4>
    3838:	e0fffe03 	ldbu	r3,-8(fp)
    383c:	00bfe004 	movi	r2,-128
    3840:	1884703a 	and	r2,r3,r2
    3844:	e0bfe605 	stb	r2,-104(fp)
    3848:	e0bfe603 	ldbu	r2,-104(fp)
    384c:	10000626 	beq	r2,zero,3868 <OSFlagPend+0xf4>
    3850:	e0bffe03 	ldbu	r2,-8(fp)
    3854:	10801fcc 	andi	r2,r2,127
    3858:	e0bffe05 	stb	r2,-8(fp)
    385c:	00800044 	movi	r2,1
    3860:	e0bfe405 	stb	r2,-112(fp)
    3864:	00000106 	br	386c <OSFlagPend+0xf8>
    3868:	e03fe405 	stb	zero,-112(fp)
    386c:	0005303a 	rdctl	r2,status
    3870:	e0bff615 	stw	r2,-40(fp)
    3874:	e0fff617 	ldw	r3,-40(fp)
    3878:	00bfff84 	movi	r2,-2
    387c:	1884703a 	and	r2,r3,r2
    3880:	1001703a 	wrctl	status,r2
    3884:	e0bff617 	ldw	r2,-40(fp)
    3888:	e0bfe515 	stw	r2,-108(fp)
    388c:	e0bffe03 	ldbu	r2,-8(fp)
    3890:	10c00060 	cmpeqi	r3,r2,1
    3894:	1800921e 	bne	r3,zero,3ae0 <OSFlagPend+0x36c>
    3898:	10c00088 	cmpgei	r3,r2,2
    389c:	1800021e 	bne	r3,zero,38a8 <OSFlagPend+0x134>
    38a0:	10006126 	beq	r2,zero,3a28 <OSFlagPend+0x2b4>
    38a4:	0000bb06 	br	3b94 <OSFlagPend+0x420>
    38a8:	10c000a0 	cmpeqi	r3,r2,2
    38ac:	1800031e 	bne	r3,zero,38bc <OSFlagPend+0x148>
    38b0:	108000e0 	cmpeqi	r2,r2,3
    38b4:	10002f1e 	bne	r2,zero,3974 <OSFlagPend+0x200>
    38b8:	0000b606 	br	3b94 <OSFlagPend+0x420>
    38bc:	e0bffc17 	ldw	r2,-16(fp)
    38c0:	10c0020b 	ldhu	r3,8(r2)
    38c4:	e0bffd0b 	ldhu	r2,-12(fp)
    38c8:	1884703a 	and	r2,r3,r2
    38cc:	e0bfe80d 	sth	r2,-96(fp)
    38d0:	e0ffe80b 	ldhu	r3,-96(fp)
    38d4:	e0bffd0b 	ldhu	r2,-12(fp)
    38d8:	1880171e 	bne	r3,r2,3938 <OSFlagPend+0x1c4>
    38dc:	e0bfe403 	ldbu	r2,-112(fp)
    38e0:	10800058 	cmpnei	r2,r2,1
    38e4:	1000091e 	bne	r2,zero,390c <OSFlagPend+0x198>
    38e8:	e0bffc17 	ldw	r2,-16(fp)
    38ec:	1080020b 	ldhu	r2,8(r2)
    38f0:	1007883a 	mov	r3,r2
    38f4:	e0bfe80b 	ldhu	r2,-96(fp)
    38f8:	0084303a 	nor	r2,zero,r2
    38fc:	1884703a 	and	r2,r3,r2
    3900:	1007883a 	mov	r3,r2
    3904:	e0bffc17 	ldw	r2,-16(fp)
    3908:	10c0020d 	sth	r3,8(r2)
    390c:	d0a6c317 	ldw	r2,-25844(gp)
    3910:	e0ffe80b 	ldhu	r3,-96(fp)
    3914:	10c00b0d 	sth	r3,44(r2)
    3918:	e0bfe517 	ldw	r2,-108(fp)
    391c:	e0bfe715 	stw	r2,-100(fp)
    3920:	e0bfe717 	ldw	r2,-100(fp)
    3924:	1001703a 	wrctl	status,r2
    3928:	e0800217 	ldw	r2,8(fp)
    392c:	10000005 	stb	zero,0(r2)
    3930:	e0bfe80b 	ldhu	r2,-96(fp)
    3934:	0000f806 	br	3d18 <OSFlagPend+0x5a4>
    3938:	e13ffd0b 	ldhu	r4,-12(fp)
    393c:	e17ffe03 	ldbu	r5,-8(fp)
    3940:	e0bfff0b 	ldhu	r2,-4(fp)
    3944:	e0fff704 	addi	r3,fp,-36
    3948:	d8800015 	stw	r2,0(sp)
    394c:	280f883a 	mov	r7,r5
    3950:	200d883a 	mov	r6,r4
    3954:	180b883a 	mov	r5,r3
    3958:	e13ffc17 	ldw	r4,-16(fp)
    395c:	00041e40 	call	41e4 <OS_FlagBlock>
    3960:	e0bfe517 	ldw	r2,-108(fp)
    3964:	e0bfe915 	stw	r2,-92(fp)
    3968:	e0bfe917 	ldw	r2,-92(fp)
    396c:	1001703a 	wrctl	status,r2
    3970:	00009206 	br	3bbc <OSFlagPend+0x448>
    3974:	e0bffc17 	ldw	r2,-16(fp)
    3978:	10c0020b 	ldhu	r3,8(r2)
    397c:	e0bffd0b 	ldhu	r2,-12(fp)
    3980:	1884703a 	and	r2,r3,r2
    3984:	e0bfe80d 	sth	r2,-96(fp)
    3988:	e0bfe80b 	ldhu	r2,-96(fp)
    398c:	10001726 	beq	r2,zero,39ec <OSFlagPend+0x278>
    3990:	e0bfe403 	ldbu	r2,-112(fp)
    3994:	10800058 	cmpnei	r2,r2,1
    3998:	1000091e 	bne	r2,zero,39c0 <OSFlagPend+0x24c>
    399c:	e0bffc17 	ldw	r2,-16(fp)
    39a0:	1080020b 	ldhu	r2,8(r2)
    39a4:	1007883a 	mov	r3,r2
    39a8:	e0bfe80b 	ldhu	r2,-96(fp)
    39ac:	0084303a 	nor	r2,zero,r2
    39b0:	1884703a 	and	r2,r3,r2
    39b4:	1007883a 	mov	r3,r2
    39b8:	e0bffc17 	ldw	r2,-16(fp)
    39bc:	10c0020d 	sth	r3,8(r2)
    39c0:	d0a6c317 	ldw	r2,-25844(gp)
    39c4:	e0ffe80b 	ldhu	r3,-96(fp)
    39c8:	10c00b0d 	sth	r3,44(r2)
    39cc:	e0bfe517 	ldw	r2,-108(fp)
    39d0:	e0bfea15 	stw	r2,-88(fp)
    39d4:	e0bfea17 	ldw	r2,-88(fp)
    39d8:	1001703a 	wrctl	status,r2
    39dc:	e0800217 	ldw	r2,8(fp)
    39e0:	10000005 	stb	zero,0(r2)
    39e4:	e0bfe80b 	ldhu	r2,-96(fp)
    39e8:	0000cb06 	br	3d18 <OSFlagPend+0x5a4>
    39ec:	e13ffd0b 	ldhu	r4,-12(fp)
    39f0:	e17ffe03 	ldbu	r5,-8(fp)
    39f4:	e0bfff0b 	ldhu	r2,-4(fp)
    39f8:	e0fff704 	addi	r3,fp,-36
    39fc:	d8800015 	stw	r2,0(sp)
    3a00:	280f883a 	mov	r7,r5
    3a04:	200d883a 	mov	r6,r4
    3a08:	180b883a 	mov	r5,r3
    3a0c:	e13ffc17 	ldw	r4,-16(fp)
    3a10:	00041e40 	call	41e4 <OS_FlagBlock>
    3a14:	e0bfe517 	ldw	r2,-108(fp)
    3a18:	e0bfeb15 	stw	r2,-84(fp)
    3a1c:	e0bfeb17 	ldw	r2,-84(fp)
    3a20:	1001703a 	wrctl	status,r2
    3a24:	00006506 	br	3bbc <OSFlagPend+0x448>
    3a28:	e0bffc17 	ldw	r2,-16(fp)
    3a2c:	1080020b 	ldhu	r2,8(r2)
    3a30:	0084303a 	nor	r2,zero,r2
    3a34:	1007883a 	mov	r3,r2
    3a38:	e0bffd0b 	ldhu	r2,-12(fp)
    3a3c:	1884703a 	and	r2,r3,r2
    3a40:	e0bfe80d 	sth	r2,-96(fp)
    3a44:	e0ffe80b 	ldhu	r3,-96(fp)
    3a48:	e0bffd0b 	ldhu	r2,-12(fp)
    3a4c:	1880151e 	bne	r3,r2,3aa4 <OSFlagPend+0x330>
    3a50:	e0bfe403 	ldbu	r2,-112(fp)
    3a54:	10800058 	cmpnei	r2,r2,1
    3a58:	1000071e 	bne	r2,zero,3a78 <OSFlagPend+0x304>
    3a5c:	e0bffc17 	ldw	r2,-16(fp)
    3a60:	10c0020b 	ldhu	r3,8(r2)
    3a64:	e0bfe80b 	ldhu	r2,-96(fp)
    3a68:	1884b03a 	or	r2,r3,r2
    3a6c:	1007883a 	mov	r3,r2
    3a70:	e0bffc17 	ldw	r2,-16(fp)
    3a74:	10c0020d 	sth	r3,8(r2)
    3a78:	d0a6c317 	ldw	r2,-25844(gp)
    3a7c:	e0ffe80b 	ldhu	r3,-96(fp)
    3a80:	10c00b0d 	sth	r3,44(r2)
    3a84:	e0bfe517 	ldw	r2,-108(fp)
    3a88:	e0bfec15 	stw	r2,-80(fp)
    3a8c:	e0bfec17 	ldw	r2,-80(fp)
    3a90:	1001703a 	wrctl	status,r2
    3a94:	e0800217 	ldw	r2,8(fp)
    3a98:	10000005 	stb	zero,0(r2)
    3a9c:	e0bfe80b 	ldhu	r2,-96(fp)
    3aa0:	00009d06 	br	3d18 <OSFlagPend+0x5a4>
    3aa4:	e13ffd0b 	ldhu	r4,-12(fp)
    3aa8:	e17ffe03 	ldbu	r5,-8(fp)
    3aac:	e0bfff0b 	ldhu	r2,-4(fp)
    3ab0:	e0fff704 	addi	r3,fp,-36
    3ab4:	d8800015 	stw	r2,0(sp)
    3ab8:	280f883a 	mov	r7,r5
    3abc:	200d883a 	mov	r6,r4
    3ac0:	180b883a 	mov	r5,r3
    3ac4:	e13ffc17 	ldw	r4,-16(fp)
    3ac8:	00041e40 	call	41e4 <OS_FlagBlock>
    3acc:	e0bfe517 	ldw	r2,-108(fp)
    3ad0:	e0bfed15 	stw	r2,-76(fp)
    3ad4:	e0bfed17 	ldw	r2,-76(fp)
    3ad8:	1001703a 	wrctl	status,r2
    3adc:	00003706 	br	3bbc <OSFlagPend+0x448>
    3ae0:	e0bffc17 	ldw	r2,-16(fp)
    3ae4:	1080020b 	ldhu	r2,8(r2)
    3ae8:	0084303a 	nor	r2,zero,r2
    3aec:	1007883a 	mov	r3,r2
    3af0:	e0bffd0b 	ldhu	r2,-12(fp)
    3af4:	1884703a 	and	r2,r3,r2
    3af8:	e0bfe80d 	sth	r2,-96(fp)
    3afc:	e0bfe80b 	ldhu	r2,-96(fp)
    3b00:	10001526 	beq	r2,zero,3b58 <OSFlagPend+0x3e4>
    3b04:	e0bfe403 	ldbu	r2,-112(fp)
    3b08:	10800058 	cmpnei	r2,r2,1
    3b0c:	1000071e 	bne	r2,zero,3b2c <OSFlagPend+0x3b8>
    3b10:	e0bffc17 	ldw	r2,-16(fp)
    3b14:	10c0020b 	ldhu	r3,8(r2)
    3b18:	e0bfe80b 	ldhu	r2,-96(fp)
    3b1c:	1884b03a 	or	r2,r3,r2
    3b20:	1007883a 	mov	r3,r2
    3b24:	e0bffc17 	ldw	r2,-16(fp)
    3b28:	10c0020d 	sth	r3,8(r2)
    3b2c:	d0a6c317 	ldw	r2,-25844(gp)
    3b30:	e0ffe80b 	ldhu	r3,-96(fp)
    3b34:	10c00b0d 	sth	r3,44(r2)
    3b38:	e0bfe517 	ldw	r2,-108(fp)
    3b3c:	e0bfee15 	stw	r2,-72(fp)
    3b40:	e0bfee17 	ldw	r2,-72(fp)
    3b44:	1001703a 	wrctl	status,r2
    3b48:	e0800217 	ldw	r2,8(fp)
    3b4c:	10000005 	stb	zero,0(r2)
    3b50:	e0bfe80b 	ldhu	r2,-96(fp)
    3b54:	00007006 	br	3d18 <OSFlagPend+0x5a4>
    3b58:	e13ffd0b 	ldhu	r4,-12(fp)
    3b5c:	e17ffe03 	ldbu	r5,-8(fp)
    3b60:	e0bfff0b 	ldhu	r2,-4(fp)
    3b64:	e0fff704 	addi	r3,fp,-36
    3b68:	d8800015 	stw	r2,0(sp)
    3b6c:	280f883a 	mov	r7,r5
    3b70:	200d883a 	mov	r6,r4
    3b74:	180b883a 	mov	r5,r3
    3b78:	e13ffc17 	ldw	r4,-16(fp)
    3b7c:	00041e40 	call	41e4 <OS_FlagBlock>
    3b80:	e0bfe517 	ldw	r2,-108(fp)
    3b84:	e0bfef15 	stw	r2,-68(fp)
    3b88:	e0bfef17 	ldw	r2,-68(fp)
    3b8c:	1001703a 	wrctl	status,r2
    3b90:	00000a06 	br	3bbc <OSFlagPend+0x448>
    3b94:	e0bfe517 	ldw	r2,-108(fp)
    3b98:	e0bff015 	stw	r2,-64(fp)
    3b9c:	e0bff017 	ldw	r2,-64(fp)
    3ba0:	1001703a 	wrctl	status,r2
    3ba4:	e03fe80d 	sth	zero,-96(fp)
    3ba8:	e0800217 	ldw	r2,8(fp)
    3bac:	00c01bc4 	movi	r3,111
    3bb0:	10c00005 	stb	r3,0(r2)
    3bb4:	e0bfe80b 	ldhu	r2,-96(fp)
    3bb8:	00005706 	br	3d18 <OSFlagPend+0x5a4>
    3bbc:	00026340 	call	2634 <OS_Sched>
    3bc0:	0005303a 	rdctl	r2,status
    3bc4:	e0bff115 	stw	r2,-60(fp)
    3bc8:	e0fff117 	ldw	r3,-60(fp)
    3bcc:	00bfff84 	movi	r2,-2
    3bd0:	1884703a 	and	r2,r3,r2
    3bd4:	1001703a 	wrctl	status,r2
    3bd8:	e0bff117 	ldw	r2,-60(fp)
    3bdc:	e0bfe515 	stw	r2,-108(fp)
    3be0:	d0a6c317 	ldw	r2,-25844(gp)
    3be4:	10800c43 	ldbu	r2,49(r2)
    3be8:	10803fcc 	andi	r2,r2,255
    3bec:	10001c26 	beq	r2,zero,3c60 <OSFlagPend+0x4ec>
    3bf0:	d0a6c317 	ldw	r2,-25844(gp)
    3bf4:	10800c43 	ldbu	r2,49(r2)
    3bf8:	e0bff305 	stb	r2,-52(fp)
    3bfc:	d0a6c317 	ldw	r2,-25844(gp)
    3c00:	10000c45 	stb	zero,49(r2)
    3c04:	e0bff704 	addi	r2,fp,-36
    3c08:	1009883a 	mov	r4,r2
    3c0c:	00045180 	call	4518 <OS_FlagUnlink>
    3c10:	d0a6c317 	ldw	r2,-25844(gp)
    3c14:	10000c05 	stb	zero,48(r2)
    3c18:	e0bfe517 	ldw	r2,-108(fp)
    3c1c:	e0bff215 	stw	r2,-56(fp)
    3c20:	e0bff217 	ldw	r2,-56(fp)
    3c24:	1001703a 	wrctl	status,r2
    3c28:	e03fe80d 	sth	zero,-96(fp)
    3c2c:	e0bff303 	ldbu	r2,-52(fp)
    3c30:	108000a0 	cmpeqi	r2,r2,2
    3c34:	10000426 	beq	r2,zero,3c48 <OSFlagPend+0x4d4>
    3c38:	e0800217 	ldw	r2,8(fp)
    3c3c:	00c00384 	movi	r3,14
    3c40:	10c00005 	stb	r3,0(r2)
    3c44:	00000406 	br	3c58 <OSFlagPend+0x4e4>
    3c48:	e0800217 	ldw	r2,8(fp)
    3c4c:	00c00284 	movi	r3,10
    3c50:	10c00005 	stb	r3,0(r2)
    3c54:	0001883a 	nop
    3c58:	e0bfe80b 	ldhu	r2,-96(fp)
    3c5c:	00002e06 	br	3d18 <OSFlagPend+0x5a4>
    3c60:	d0a6c317 	ldw	r2,-25844(gp)
    3c64:	10800b0b 	ldhu	r2,44(r2)
    3c68:	e0bfe80d 	sth	r2,-96(fp)
    3c6c:	e0bfe403 	ldbu	r2,-112(fp)
    3c70:	10800058 	cmpnei	r2,r2,1
    3c74:	1000211e 	bne	r2,zero,3cfc <OSFlagPend+0x588>
    3c78:	e0bffe03 	ldbu	r2,-8(fp)
    3c7c:	10001616 	blt	r2,zero,3cd8 <OSFlagPend+0x564>
    3c80:	10c00090 	cmplti	r3,r2,2
    3c84:	18000c1e 	bne	r3,zero,3cb8 <OSFlagPend+0x544>
    3c88:	10800108 	cmpgei	r2,r2,4
    3c8c:	1000121e 	bne	r2,zero,3cd8 <OSFlagPend+0x564>
    3c90:	e0bffc17 	ldw	r2,-16(fp)
    3c94:	1080020b 	ldhu	r2,8(r2)
    3c98:	1007883a 	mov	r3,r2
    3c9c:	e0bfe80b 	ldhu	r2,-96(fp)
    3ca0:	0084303a 	nor	r2,zero,r2
    3ca4:	1884703a 	and	r2,r3,r2
    3ca8:	1007883a 	mov	r3,r2
    3cac:	e0bffc17 	ldw	r2,-16(fp)
    3cb0:	10c0020d 	sth	r3,8(r2)
    3cb4:	00001106 	br	3cfc <OSFlagPend+0x588>
    3cb8:	e0bffc17 	ldw	r2,-16(fp)
    3cbc:	10c0020b 	ldhu	r3,8(r2)
    3cc0:	e0bfe80b 	ldhu	r2,-96(fp)
    3cc4:	1884b03a 	or	r2,r3,r2
    3cc8:	1007883a 	mov	r3,r2
    3ccc:	e0bffc17 	ldw	r2,-16(fp)
    3cd0:	10c0020d 	sth	r3,8(r2)
    3cd4:	00000906 	br	3cfc <OSFlagPend+0x588>
    3cd8:	e0bfe517 	ldw	r2,-108(fp)
    3cdc:	e0bff415 	stw	r2,-48(fp)
    3ce0:	e0bff417 	ldw	r2,-48(fp)
    3ce4:	1001703a 	wrctl	status,r2
    3ce8:	e0800217 	ldw	r2,8(fp)
    3cec:	00c01bc4 	movi	r3,111
    3cf0:	10c00005 	stb	r3,0(r2)
    3cf4:	0005883a 	mov	r2,zero
    3cf8:	00000706 	br	3d18 <OSFlagPend+0x5a4>
    3cfc:	e0bfe517 	ldw	r2,-108(fp)
    3d00:	e0bff515 	stw	r2,-44(fp)
    3d04:	e0bff517 	ldw	r2,-44(fp)
    3d08:	1001703a 	wrctl	status,r2
    3d0c:	e0800217 	ldw	r2,8(fp)
    3d10:	10000005 	stb	zero,0(r2)
    3d14:	e0bfe80b 	ldhu	r2,-96(fp)
    3d18:	e037883a 	mov	sp,fp
    3d1c:	dfc00117 	ldw	ra,4(sp)
    3d20:	df000017 	ldw	fp,0(sp)
    3d24:	dec00204 	addi	sp,sp,8
    3d28:	f800283a 	ret

00003d2c <OSFlagPendGetFlagsRdy>:
    3d2c:	defffb04 	addi	sp,sp,-20
    3d30:	df000415 	stw	fp,16(sp)
    3d34:	df000404 	addi	fp,sp,16
    3d38:	e03ffc15 	stw	zero,-16(fp)
    3d3c:	0005303a 	rdctl	r2,status
    3d40:	e0bffe15 	stw	r2,-8(fp)
    3d44:	e0fffe17 	ldw	r3,-8(fp)
    3d48:	00bfff84 	movi	r2,-2
    3d4c:	1884703a 	and	r2,r3,r2
    3d50:	1001703a 	wrctl	status,r2
    3d54:	e0bffe17 	ldw	r2,-8(fp)
    3d58:	e0bffc15 	stw	r2,-16(fp)
    3d5c:	d0a6c317 	ldw	r2,-25844(gp)
    3d60:	10800b0b 	ldhu	r2,44(r2)
    3d64:	e0bffd0d 	sth	r2,-12(fp)
    3d68:	e0bffc17 	ldw	r2,-16(fp)
    3d6c:	e0bfff15 	stw	r2,-4(fp)
    3d70:	e0bfff17 	ldw	r2,-4(fp)
    3d74:	1001703a 	wrctl	status,r2
    3d78:	e0bffd0b 	ldhu	r2,-12(fp)
    3d7c:	e037883a 	mov	sp,fp
    3d80:	df000017 	ldw	fp,0(sp)
    3d84:	dec00104 	addi	sp,sp,4
    3d88:	f800283a 	ret

00003d8c <OSFlagPost>:
    3d8c:	deffef04 	addi	sp,sp,-68
    3d90:	dfc01015 	stw	ra,64(sp)
    3d94:	df000f15 	stw	fp,60(sp)
    3d98:	df000f04 	addi	fp,sp,60
    3d9c:	e13ffc15 	stw	r4,-16(fp)
    3da0:	2807883a 	mov	r3,r5
    3da4:	3005883a 	mov	r2,r6
    3da8:	e1ffff15 	stw	r7,-4(fp)
    3dac:	e0fffd0d 	sth	r3,-12(fp)
    3db0:	e0bffe05 	stb	r2,-8(fp)
    3db4:	e03ff315 	stw	zero,-52(fp)
    3db8:	e0bfff17 	ldw	r2,-4(fp)
    3dbc:	1000021e 	bne	r2,zero,3dc8 <OSFlagPost+0x3c>
    3dc0:	0005883a 	mov	r2,zero
    3dc4:	0000d106 	br	410c <OSFlagPost+0x380>
    3dc8:	e0bffc17 	ldw	r2,-16(fp)
    3dcc:	1000051e 	bne	r2,zero,3de4 <OSFlagPost+0x58>
    3dd0:	e0bfff17 	ldw	r2,-4(fp)
    3dd4:	00c01b84 	movi	r3,110
    3dd8:	10c00005 	stb	r3,0(r2)
    3ddc:	0005883a 	mov	r2,zero
    3de0:	0000ca06 	br	410c <OSFlagPost+0x380>
    3de4:	e0bffc17 	ldw	r2,-16(fp)
    3de8:	10800003 	ldbu	r2,0(r2)
    3dec:	10803fcc 	andi	r2,r2,255
    3df0:	10800160 	cmpeqi	r2,r2,5
    3df4:	1000051e 	bne	r2,zero,3e0c <OSFlagPost+0x80>
    3df8:	e0bfff17 	ldw	r2,-4(fp)
    3dfc:	00c00044 	movi	r3,1
    3e00:	10c00005 	stb	r3,0(r2)
    3e04:	0005883a 	mov	r2,zero
    3e08:	0000c006 	br	410c <OSFlagPost+0x380>
    3e0c:	0005303a 	rdctl	r2,status
    3e10:	e0bffb15 	stw	r2,-20(fp)
    3e14:	e0fffb17 	ldw	r3,-20(fp)
    3e18:	00bfff84 	movi	r2,-2
    3e1c:	1884703a 	and	r2,r3,r2
    3e20:	1001703a 	wrctl	status,r2
    3e24:	e0bffb17 	ldw	r2,-20(fp)
    3e28:	e0bff315 	stw	r2,-52(fp)
    3e2c:	e0bffe03 	ldbu	r2,-8(fp)
    3e30:	10000326 	beq	r2,zero,3e40 <OSFlagPost+0xb4>
    3e34:	10800060 	cmpeqi	r2,r2,1
    3e38:	10000b1e 	bne	r2,zero,3e68 <OSFlagPost+0xdc>
    3e3c:	00001206 	br	3e88 <OSFlagPost+0xfc>
    3e40:	e0bffc17 	ldw	r2,-16(fp)
    3e44:	1080020b 	ldhu	r2,8(r2)
    3e48:	1007883a 	mov	r3,r2
    3e4c:	e0bffd0b 	ldhu	r2,-12(fp)
    3e50:	0084303a 	nor	r2,zero,r2
    3e54:	1884703a 	and	r2,r3,r2
    3e58:	1007883a 	mov	r3,r2
    3e5c:	e0bffc17 	ldw	r2,-16(fp)
    3e60:	10c0020d 	sth	r3,8(r2)
    3e64:	00001106 	br	3eac <OSFlagPost+0x120>
    3e68:	e0bffc17 	ldw	r2,-16(fp)
    3e6c:	10c0020b 	ldhu	r3,8(r2)
    3e70:	e0bffd0b 	ldhu	r2,-12(fp)
    3e74:	1884b03a 	or	r2,r3,r2
    3e78:	1007883a 	mov	r3,r2
    3e7c:	e0bffc17 	ldw	r2,-16(fp)
    3e80:	10c0020d 	sth	r3,8(r2)
    3e84:	00000906 	br	3eac <OSFlagPost+0x120>
    3e88:	e0bff317 	ldw	r2,-52(fp)
    3e8c:	e0bff415 	stw	r2,-48(fp)
    3e90:	e0bff417 	ldw	r2,-48(fp)
    3e94:	1001703a 	wrctl	status,r2
    3e98:	e0bfff17 	ldw	r2,-4(fp)
    3e9c:	00c01c44 	movi	r3,113
    3ea0:	10c00005 	stb	r3,0(r2)
    3ea4:	0005883a 	mov	r2,zero
    3ea8:	00009806 	br	410c <OSFlagPost+0x380>
    3eac:	e03ff205 	stb	zero,-56(fp)
    3eb0:	e0bffc17 	ldw	r2,-16(fp)
    3eb4:	10800117 	ldw	r2,4(r2)
    3eb8:	e0bff115 	stw	r2,-60(fp)
    3ebc:	00007706 	br	409c <OSFlagPost+0x310>
    3ec0:	e0bff117 	ldw	r2,-60(fp)
    3ec4:	10800483 	ldbu	r2,18(r2)
    3ec8:	10803fcc 	andi	r2,r2,255
    3ecc:	10c00060 	cmpeqi	r3,r2,1
    3ed0:	18004a1e 	bne	r3,zero,3ffc <OSFlagPost+0x270>
    3ed4:	10c00088 	cmpgei	r3,r2,2
    3ed8:	1800021e 	bne	r3,zero,3ee4 <OSFlagPost+0x158>
    3edc:	10002f26 	beq	r2,zero,3f9c <OSFlagPost+0x210>
    3ee0:	00005b06 	br	4050 <OSFlagPost+0x2c4>
    3ee4:	10c000a0 	cmpeqi	r3,r2,2
    3ee8:	1800031e 	bne	r3,zero,3ef8 <OSFlagPost+0x16c>
    3eec:	108000e0 	cmpeqi	r2,r2,3
    3ef0:	1000171e 	bne	r2,zero,3f50 <OSFlagPost+0x1c4>
    3ef4:	00005606 	br	4050 <OSFlagPost+0x2c4>
    3ef8:	e0bffc17 	ldw	r2,-16(fp)
    3efc:	10c0020b 	ldhu	r3,8(r2)
    3f00:	e0bff117 	ldw	r2,-60(fp)
    3f04:	1080040b 	ldhu	r2,16(r2)
    3f08:	1884703a 	and	r2,r3,r2
    3f0c:	e0bff60d 	sth	r2,-40(fp)
    3f10:	e0bff117 	ldw	r2,-60(fp)
    3f14:	1080040b 	ldhu	r2,16(r2)
    3f18:	10ffffcc 	andi	r3,r2,65535
    3f1c:	e0bff60b 	ldhu	r2,-40(fp)
    3f20:	1880541e 	bne	r3,r2,4074 <OSFlagPost+0x2e8>
    3f24:	e0bff60b 	ldhu	r2,-40(fp)
    3f28:	100b883a 	mov	r5,r2
    3f2c:	e13ff117 	ldw	r4,-60(fp)
    3f30:	00044240 	call	4424 <OS_FlagTaskRdy>
    3f34:	e0bff685 	stb	r2,-38(fp)
    3f38:	e0bff683 	ldbu	r2,-38(fp)
    3f3c:	10800058 	cmpnei	r2,r2,1
    3f40:	10004c1e 	bne	r2,zero,4074 <OSFlagPost+0x2e8>
    3f44:	00800044 	movi	r2,1
    3f48:	e0bff205 	stb	r2,-56(fp)
    3f4c:	00004906 	br	4074 <OSFlagPost+0x2e8>
    3f50:	e0bffc17 	ldw	r2,-16(fp)
    3f54:	10c0020b 	ldhu	r3,8(r2)
    3f58:	e0bff117 	ldw	r2,-60(fp)
    3f5c:	1080040b 	ldhu	r2,16(r2)
    3f60:	1884703a 	and	r2,r3,r2
    3f64:	e0bff60d 	sth	r2,-40(fp)
    3f68:	e0bff60b 	ldhu	r2,-40(fp)
    3f6c:	10004326 	beq	r2,zero,407c <OSFlagPost+0x2f0>
    3f70:	e0bff60b 	ldhu	r2,-40(fp)
    3f74:	100b883a 	mov	r5,r2
    3f78:	e13ff117 	ldw	r4,-60(fp)
    3f7c:	00044240 	call	4424 <OS_FlagTaskRdy>
    3f80:	e0bff685 	stb	r2,-38(fp)
    3f84:	e0bff683 	ldbu	r2,-38(fp)
    3f88:	10800058 	cmpnei	r2,r2,1
    3f8c:	10003b1e 	bne	r2,zero,407c <OSFlagPost+0x2f0>
    3f90:	00800044 	movi	r2,1
    3f94:	e0bff205 	stb	r2,-56(fp)
    3f98:	00003806 	br	407c <OSFlagPost+0x2f0>
    3f9c:	e0bffc17 	ldw	r2,-16(fp)
    3fa0:	1080020b 	ldhu	r2,8(r2)
    3fa4:	0084303a 	nor	r2,zero,r2
    3fa8:	1007883a 	mov	r3,r2
    3fac:	e0bff117 	ldw	r2,-60(fp)
    3fb0:	1080040b 	ldhu	r2,16(r2)
    3fb4:	1884703a 	and	r2,r3,r2
    3fb8:	e0bff60d 	sth	r2,-40(fp)
    3fbc:	e0bff117 	ldw	r2,-60(fp)
    3fc0:	1080040b 	ldhu	r2,16(r2)
    3fc4:	10ffffcc 	andi	r3,r2,65535
    3fc8:	e0bff60b 	ldhu	r2,-40(fp)
    3fcc:	18802d1e 	bne	r3,r2,4084 <OSFlagPost+0x2f8>
    3fd0:	e0bff60b 	ldhu	r2,-40(fp)
    3fd4:	100b883a 	mov	r5,r2
    3fd8:	e13ff117 	ldw	r4,-60(fp)
    3fdc:	00044240 	call	4424 <OS_FlagTaskRdy>
    3fe0:	e0bff685 	stb	r2,-38(fp)
    3fe4:	e0bff683 	ldbu	r2,-38(fp)
    3fe8:	10800058 	cmpnei	r2,r2,1
    3fec:	1000251e 	bne	r2,zero,4084 <OSFlagPost+0x2f8>
    3ff0:	00800044 	movi	r2,1
    3ff4:	e0bff205 	stb	r2,-56(fp)
    3ff8:	00002206 	br	4084 <OSFlagPost+0x2f8>
    3ffc:	e0bffc17 	ldw	r2,-16(fp)
    4000:	1080020b 	ldhu	r2,8(r2)
    4004:	0084303a 	nor	r2,zero,r2
    4008:	1007883a 	mov	r3,r2
    400c:	e0bff117 	ldw	r2,-60(fp)
    4010:	1080040b 	ldhu	r2,16(r2)
    4014:	1884703a 	and	r2,r3,r2
    4018:	e0bff60d 	sth	r2,-40(fp)
    401c:	e0bff60b 	ldhu	r2,-40(fp)
    4020:	10001a26 	beq	r2,zero,408c <OSFlagPost+0x300>
    4024:	e0bff60b 	ldhu	r2,-40(fp)
    4028:	100b883a 	mov	r5,r2
    402c:	e13ff117 	ldw	r4,-60(fp)
    4030:	00044240 	call	4424 <OS_FlagTaskRdy>
    4034:	e0bff685 	stb	r2,-38(fp)
    4038:	e0bff683 	ldbu	r2,-38(fp)
    403c:	10800058 	cmpnei	r2,r2,1
    4040:	1000121e 	bne	r2,zero,408c <OSFlagPost+0x300>
    4044:	00800044 	movi	r2,1
    4048:	e0bff205 	stb	r2,-56(fp)
    404c:	00000f06 	br	408c <OSFlagPost+0x300>
    4050:	e0bff317 	ldw	r2,-52(fp)
    4054:	e0bff515 	stw	r2,-44(fp)
    4058:	e0bff517 	ldw	r2,-44(fp)
    405c:	1001703a 	wrctl	status,r2
    4060:	e0bfff17 	ldw	r2,-4(fp)
    4064:	00c01bc4 	movi	r3,111
    4068:	10c00005 	stb	r3,0(r2)
    406c:	0005883a 	mov	r2,zero
    4070:	00002606 	br	410c <OSFlagPost+0x380>
    4074:	0001883a 	nop
    4078:	00000506 	br	4090 <OSFlagPost+0x304>
    407c:	0001883a 	nop
    4080:	00000306 	br	4090 <OSFlagPost+0x304>
    4084:	0001883a 	nop
    4088:	00000106 	br	4090 <OSFlagPost+0x304>
    408c:	0001883a 	nop
    4090:	e0bff117 	ldw	r2,-60(fp)
    4094:	10800017 	ldw	r2,0(r2)
    4098:	e0bff115 	stw	r2,-60(fp)
    409c:	e0bff117 	ldw	r2,-60(fp)
    40a0:	103f871e 	bne	r2,zero,3ec0 <OSFlagPost+0x134>
    40a4:	e0bff317 	ldw	r2,-52(fp)
    40a8:	e0bff715 	stw	r2,-36(fp)
    40ac:	e0bff717 	ldw	r2,-36(fp)
    40b0:	1001703a 	wrctl	status,r2
    40b4:	e0bff203 	ldbu	r2,-56(fp)
    40b8:	10800058 	cmpnei	r2,r2,1
    40bc:	1000011e 	bne	r2,zero,40c4 <OSFlagPost+0x338>
    40c0:	00026340 	call	2634 <OS_Sched>
    40c4:	0005303a 	rdctl	r2,status
    40c8:	e0bffa15 	stw	r2,-24(fp)
    40cc:	e0fffa17 	ldw	r3,-24(fp)
    40d0:	00bfff84 	movi	r2,-2
    40d4:	1884703a 	and	r2,r3,r2
    40d8:	1001703a 	wrctl	status,r2
    40dc:	e0bffa17 	ldw	r2,-24(fp)
    40e0:	e0bff315 	stw	r2,-52(fp)
    40e4:	e0bffc17 	ldw	r2,-16(fp)
    40e8:	1080020b 	ldhu	r2,8(r2)
    40ec:	e0bff90d 	sth	r2,-28(fp)
    40f0:	e0bff317 	ldw	r2,-52(fp)
    40f4:	e0bff815 	stw	r2,-32(fp)
    40f8:	e0bff817 	ldw	r2,-32(fp)
    40fc:	1001703a 	wrctl	status,r2
    4100:	e0bfff17 	ldw	r2,-4(fp)
    4104:	10000005 	stb	zero,0(r2)
    4108:	e0bff90b 	ldhu	r2,-28(fp)
    410c:	e037883a 	mov	sp,fp
    4110:	dfc00117 	ldw	ra,4(sp)
    4114:	df000017 	ldw	fp,0(sp)
    4118:	dec00204 	addi	sp,sp,8
    411c:	f800283a 	ret

00004120 <OSFlagQuery>:
    4120:	defff904 	addi	sp,sp,-28
    4124:	df000615 	stw	fp,24(sp)
    4128:	df000604 	addi	fp,sp,24
    412c:	e13ffe15 	stw	r4,-8(fp)
    4130:	e17fff15 	stw	r5,-4(fp)
    4134:	e03ffa15 	stw	zero,-24(fp)
    4138:	e0bfff17 	ldw	r2,-4(fp)
    413c:	1000021e 	bne	r2,zero,4148 <OSFlagQuery+0x28>
    4140:	0005883a 	mov	r2,zero
    4144:	00002306 	br	41d4 <OSFlagQuery+0xb4>
    4148:	e0bffe17 	ldw	r2,-8(fp)
    414c:	1000051e 	bne	r2,zero,4164 <OSFlagQuery+0x44>
    4150:	e0bfff17 	ldw	r2,-4(fp)
    4154:	00c01b84 	movi	r3,110
    4158:	10c00005 	stb	r3,0(r2)
    415c:	0005883a 	mov	r2,zero
    4160:	00001c06 	br	41d4 <OSFlagQuery+0xb4>
    4164:	e0bffe17 	ldw	r2,-8(fp)
    4168:	10800003 	ldbu	r2,0(r2)
    416c:	10803fcc 	andi	r2,r2,255
    4170:	10800160 	cmpeqi	r2,r2,5
    4174:	1000051e 	bne	r2,zero,418c <OSFlagQuery+0x6c>
    4178:	e0bfff17 	ldw	r2,-4(fp)
    417c:	00c00044 	movi	r3,1
    4180:	10c00005 	stb	r3,0(r2)
    4184:	0005883a 	mov	r2,zero
    4188:	00001206 	br	41d4 <OSFlagQuery+0xb4>
    418c:	0005303a 	rdctl	r2,status
    4190:	e0bffc15 	stw	r2,-16(fp)
    4194:	e0fffc17 	ldw	r3,-16(fp)
    4198:	00bfff84 	movi	r2,-2
    419c:	1884703a 	and	r2,r3,r2
    41a0:	1001703a 	wrctl	status,r2
    41a4:	e0bffc17 	ldw	r2,-16(fp)
    41a8:	e0bffa15 	stw	r2,-24(fp)
    41ac:	e0bffe17 	ldw	r2,-8(fp)
    41b0:	1080020b 	ldhu	r2,8(r2)
    41b4:	e0bffb0d 	sth	r2,-20(fp)
    41b8:	e0bffa17 	ldw	r2,-24(fp)
    41bc:	e0bffd15 	stw	r2,-12(fp)
    41c0:	e0bffd17 	ldw	r2,-12(fp)
    41c4:	1001703a 	wrctl	status,r2
    41c8:	e0bfff17 	ldw	r2,-4(fp)
    41cc:	10000005 	stb	zero,0(r2)
    41d0:	e0bffb0b 	ldhu	r2,-20(fp)
    41d4:	e037883a 	mov	sp,fp
    41d8:	df000017 	ldw	fp,0(sp)
    41dc:	dec00104 	addi	sp,sp,4
    41e0:	f800283a 	ret

000041e4 <OS_FlagBlock>:
    41e4:	defff804 	addi	sp,sp,-32
    41e8:	df000715 	stw	fp,28(sp)
    41ec:	df000704 	addi	fp,sp,28
    41f0:	e13ffb15 	stw	r4,-20(fp)
    41f4:	e17ffc15 	stw	r5,-16(fp)
    41f8:	3009883a 	mov	r4,r6
    41fc:	3807883a 	mov	r3,r7
    4200:	e0800117 	ldw	r2,4(fp)
    4204:	e13ffd0d 	sth	r4,-12(fp)
    4208:	e0fffe05 	stb	r3,-8(fp)
    420c:	e0bfff0d 	sth	r2,-4(fp)
    4210:	d0a6c317 	ldw	r2,-25844(gp)
    4214:	d0e6c317 	ldw	r3,-25844(gp)
    4218:	18c00c03 	ldbu	r3,48(r3)
    421c:	18c00814 	ori	r3,r3,32
    4220:	10c00c05 	stb	r3,48(r2)
    4224:	d0a6c317 	ldw	r2,-25844(gp)
    4228:	10000c45 	stb	zero,49(r2)
    422c:	d0a6c317 	ldw	r2,-25844(gp)
    4230:	e0ffff0b 	ldhu	r3,-4(fp)
    4234:	10c00b8d 	sth	r3,46(r2)
    4238:	d0a6c317 	ldw	r2,-25844(gp)
    423c:	e0fffc17 	ldw	r3,-16(fp)
    4240:	10c00a15 	stw	r3,40(r2)
    4244:	e0bffc17 	ldw	r2,-16(fp)
    4248:	e0fffd0b 	ldhu	r3,-12(fp)
    424c:	10c0040d 	sth	r3,16(r2)
    4250:	e0bffc17 	ldw	r2,-16(fp)
    4254:	e0fffe03 	ldbu	r3,-8(fp)
    4258:	10c00485 	stb	r3,18(r2)
    425c:	d0e6c317 	ldw	r3,-25844(gp)
    4260:	e0bffc17 	ldw	r2,-16(fp)
    4264:	10c00215 	stw	r3,8(r2)
    4268:	e0bffb17 	ldw	r2,-20(fp)
    426c:	10c00117 	ldw	r3,4(r2)
    4270:	e0bffc17 	ldw	r2,-16(fp)
    4274:	10c00015 	stw	r3,0(r2)
    4278:	e0bffc17 	ldw	r2,-16(fp)
    427c:	10000115 	stw	zero,4(r2)
    4280:	e0bffc17 	ldw	r2,-16(fp)
    4284:	e0fffb17 	ldw	r3,-20(fp)
    4288:	10c00315 	stw	r3,12(r2)
    428c:	e0bffb17 	ldw	r2,-20(fp)
    4290:	10800117 	ldw	r2,4(r2)
    4294:	e0bff915 	stw	r2,-28(fp)
    4298:	e0bff917 	ldw	r2,-28(fp)
    429c:	10000326 	beq	r2,zero,42ac <OS_FlagBlock+0xc8>
    42a0:	e0bff917 	ldw	r2,-28(fp)
    42a4:	e0fffc17 	ldw	r3,-16(fp)
    42a8:	10c00115 	stw	r3,4(r2)
    42ac:	e0bffb17 	ldw	r2,-20(fp)
    42b0:	e0fffc17 	ldw	r3,-16(fp)
    42b4:	10c00115 	stw	r3,4(r2)
    42b8:	d0a6c317 	ldw	r2,-25844(gp)
    42bc:	10800d03 	ldbu	r2,52(r2)
    42c0:	e0bffa05 	stb	r2,-24(fp)
    42c4:	e0fffa03 	ldbu	r3,-24(fp)
    42c8:	e13ffa03 	ldbu	r4,-24(fp)
    42cc:	d0a6c044 	addi	r2,gp,-25855
    42d0:	2085883a 	add	r2,r4,r2
    42d4:	10800003 	ldbu	r2,0(r2)
    42d8:	1009883a 	mov	r4,r2
    42dc:	d0a6c317 	ldw	r2,-25844(gp)
    42e0:	10800d43 	ldbu	r2,53(r2)
    42e4:	0084303a 	nor	r2,zero,r2
    42e8:	2084703a 	and	r2,r4,r2
    42ec:	1009883a 	mov	r4,r2
    42f0:	d0a6c044 	addi	r2,gp,-25855
    42f4:	1885883a 	add	r2,r3,r2
    42f8:	11000005 	stb	r4,0(r2)
    42fc:	e0fffa03 	ldbu	r3,-24(fp)
    4300:	d0a6c044 	addi	r2,gp,-25855
    4304:	1885883a 	add	r2,r3,r2
    4308:	10800003 	ldbu	r2,0(r2)
    430c:	10803fcc 	andi	r2,r2,255
    4310:	1000071e 	bne	r2,zero,4330 <OS_FlagBlock+0x14c>
    4314:	d0a6c317 	ldw	r2,-25844(gp)
    4318:	10800d83 	ldbu	r2,54(r2)
    431c:	0084303a 	nor	r2,zero,r2
    4320:	1007883a 	mov	r3,r2
    4324:	d0a6c003 	ldbu	r2,-25856(gp)
    4328:	1884703a 	and	r2,r3,r2
    432c:	d0a6c005 	stb	r2,-25856(gp)
    4330:	0001883a 	nop
    4334:	e037883a 	mov	sp,fp
    4338:	df000017 	ldw	fp,0(sp)
    433c:	dec00104 	addi	sp,sp,4
    4340:	f800283a 	ret

00004344 <OS_FlagInit>:
    4344:	defffb04 	addi	sp,sp,-20
    4348:	dfc00415 	stw	ra,16(sp)
    434c:	df000315 	stw	fp,12(sp)
    4350:	df000304 	addi	fp,sp,12
    4354:	0140dc04 	movi	r5,880
    4358:	01000074 	movhi	r4,1
    435c:	210ff204 	addi	r4,r4,16328
    4360:	00025780 	call	2578 <OS_MemClr>
    4364:	00800074 	movhi	r2,1
    4368:	108ff204 	addi	r2,r2,16328
    436c:	e0bffe15 	stw	r2,-8(fp)
    4370:	00800074 	movhi	r2,1
    4374:	108ffd04 	addi	r2,r2,16372
    4378:	e0bfff15 	stw	r2,-4(fp)
    437c:	e03ffd0d 	sth	zero,-12(fp)
    4380:	00001306 	br	43d0 <OS_FlagInit+0x8c>
    4384:	e0bffe17 	ldw	r2,-8(fp)
    4388:	10000005 	stb	zero,0(r2)
    438c:	e0bffe17 	ldw	r2,-8(fp)
    4390:	e0ffff17 	ldw	r3,-4(fp)
    4394:	10c00115 	stw	r3,4(r2)
    4398:	e0bffe17 	ldw	r2,-8(fp)
    439c:	00c00fc4 	movi	r3,63
    43a0:	10c00285 	stb	r3,10(r2)
    43a4:	e0bffe17 	ldw	r2,-8(fp)
    43a8:	100002c5 	stb	zero,11(r2)
    43ac:	e0bffe17 	ldw	r2,-8(fp)
    43b0:	10800b04 	addi	r2,r2,44
    43b4:	e0bffe15 	stw	r2,-8(fp)
    43b8:	e0bfff17 	ldw	r2,-4(fp)
    43bc:	10800b04 	addi	r2,r2,44
    43c0:	e0bfff15 	stw	r2,-4(fp)
    43c4:	e0bffd0b 	ldhu	r2,-12(fp)
    43c8:	10800044 	addi	r2,r2,1
    43cc:	e0bffd0d 	sth	r2,-12(fp)
    43d0:	e0bffd0b 	ldhu	r2,-12(fp)
    43d4:	108004f0 	cmpltui	r2,r2,19
    43d8:	103fea1e 	bne	r2,zero,4384 <OS_FlagInit+0x40>
    43dc:	e0bffe17 	ldw	r2,-8(fp)
    43e0:	10000005 	stb	zero,0(r2)
    43e4:	e0bffe17 	ldw	r2,-8(fp)
    43e8:	10000115 	stw	zero,4(r2)
    43ec:	e0bffe17 	ldw	r2,-8(fp)
    43f0:	00c00fc4 	movi	r3,63
    43f4:	10c00285 	stb	r3,10(r2)
    43f8:	e0bffe17 	ldw	r2,-8(fp)
    43fc:	100002c5 	stb	zero,11(r2)
    4400:	00800074 	movhi	r2,1
    4404:	108ff204 	addi	r2,r2,16328
    4408:	d0a6c515 	stw	r2,-25836(gp)
    440c:	0001883a 	nop
    4410:	e037883a 	mov	sp,fp
    4414:	dfc00117 	ldw	ra,4(sp)
    4418:	df000017 	ldw	fp,0(sp)
    441c:	dec00204 	addi	sp,sp,8
    4420:	f800283a 	ret

00004424 <OS_FlagTaskRdy>:
    4424:	defffa04 	addi	sp,sp,-24
    4428:	dfc00515 	stw	ra,20(sp)
    442c:	df000415 	stw	fp,16(sp)
    4430:	df000404 	addi	fp,sp,16
    4434:	e13ffe15 	stw	r4,-8(fp)
    4438:	2805883a 	mov	r2,r5
    443c:	e0bfff0d 	sth	r2,-4(fp)
    4440:	e0bffe17 	ldw	r2,-8(fp)
    4444:	10800217 	ldw	r2,8(r2)
    4448:	e0bffd15 	stw	r2,-12(fp)
    444c:	e0bffd17 	ldw	r2,-12(fp)
    4450:	10000b8d 	sth	zero,46(r2)
    4454:	e0bffd17 	ldw	r2,-12(fp)
    4458:	e0ffff0b 	ldhu	r3,-4(fp)
    445c:	10c00b0d 	sth	r3,44(r2)
    4460:	e0bffd17 	ldw	r2,-12(fp)
    4464:	10c00c03 	ldbu	r3,48(r2)
    4468:	00bff7c4 	movi	r2,-33
    446c:	1884703a 	and	r2,r3,r2
    4470:	1007883a 	mov	r3,r2
    4474:	e0bffd17 	ldw	r2,-12(fp)
    4478:	10c00c05 	stb	r3,48(r2)
    447c:	e0bffd17 	ldw	r2,-12(fp)
    4480:	10000c45 	stb	zero,49(r2)
    4484:	e0bffd17 	ldw	r2,-12(fp)
    4488:	10800c03 	ldbu	r2,48(r2)
    448c:	10803fcc 	andi	r2,r2,255
    4490:	1000181e 	bne	r2,zero,44f4 <OS_FlagTaskRdy+0xd0>
    4494:	e0bffd17 	ldw	r2,-12(fp)
    4498:	10c00d83 	ldbu	r3,54(r2)
    449c:	d0a6c003 	ldbu	r2,-25856(gp)
    44a0:	1884b03a 	or	r2,r3,r2
    44a4:	d0a6c005 	stb	r2,-25856(gp)
    44a8:	e0bffd17 	ldw	r2,-12(fp)
    44ac:	10800d03 	ldbu	r2,52(r2)
    44b0:	10c03fcc 	andi	r3,r2,255
    44b4:	e0bffd17 	ldw	r2,-12(fp)
    44b8:	10800d03 	ldbu	r2,52(r2)
    44bc:	11003fcc 	andi	r4,r2,255
    44c0:	d0a6c044 	addi	r2,gp,-25855
    44c4:	2085883a 	add	r2,r4,r2
    44c8:	11000003 	ldbu	r4,0(r2)
    44cc:	e0bffd17 	ldw	r2,-12(fp)
    44d0:	10800d43 	ldbu	r2,53(r2)
    44d4:	2084b03a 	or	r2,r4,r2
    44d8:	1009883a 	mov	r4,r2
    44dc:	d0a6c044 	addi	r2,gp,-25855
    44e0:	1885883a 	add	r2,r3,r2
    44e4:	11000005 	stb	r4,0(r2)
    44e8:	00800044 	movi	r2,1
    44ec:	e0bffc05 	stb	r2,-16(fp)
    44f0:	00000106 	br	44f8 <OS_FlagTaskRdy+0xd4>
    44f4:	e03ffc05 	stb	zero,-16(fp)
    44f8:	e13ffe17 	ldw	r4,-8(fp)
    44fc:	00045180 	call	4518 <OS_FlagUnlink>
    4500:	e0bffc03 	ldbu	r2,-16(fp)
    4504:	e037883a 	mov	sp,fp
    4508:	dfc00117 	ldw	ra,4(sp)
    450c:	df000017 	ldw	fp,0(sp)
    4510:	dec00204 	addi	sp,sp,8
    4514:	f800283a 	ret

00004518 <OS_FlagUnlink>:
    4518:	defffa04 	addi	sp,sp,-24
    451c:	df000515 	stw	fp,20(sp)
    4520:	df000504 	addi	fp,sp,20
    4524:	e13fff15 	stw	r4,-4(fp)
    4528:	e0bfff17 	ldw	r2,-4(fp)
    452c:	10800117 	ldw	r2,4(r2)
    4530:	e0bffb15 	stw	r2,-20(fp)
    4534:	e0bfff17 	ldw	r2,-4(fp)
    4538:	10800017 	ldw	r2,0(r2)
    453c:	e0bffc15 	stw	r2,-16(fp)
    4540:	e0bffb17 	ldw	r2,-20(fp)
    4544:	10000b1e 	bne	r2,zero,4574 <OS_FlagUnlink+0x5c>
    4548:	e0bfff17 	ldw	r2,-4(fp)
    454c:	10800317 	ldw	r2,12(r2)
    4550:	e0bffd15 	stw	r2,-12(fp)
    4554:	e0bffd17 	ldw	r2,-12(fp)
    4558:	e0fffc17 	ldw	r3,-16(fp)
    455c:	10c00115 	stw	r3,4(r2)
    4560:	e0bffc17 	ldw	r2,-16(fp)
    4564:	10000b26 	beq	r2,zero,4594 <OS_FlagUnlink+0x7c>
    4568:	e0bffc17 	ldw	r2,-16(fp)
    456c:	10000115 	stw	zero,4(r2)
    4570:	00000806 	br	4594 <OS_FlagUnlink+0x7c>
    4574:	e0bffb17 	ldw	r2,-20(fp)
    4578:	e0fffc17 	ldw	r3,-16(fp)
    457c:	10c00015 	stw	r3,0(r2)
    4580:	e0bffc17 	ldw	r2,-16(fp)
    4584:	10000326 	beq	r2,zero,4594 <OS_FlagUnlink+0x7c>
    4588:	e0bffc17 	ldw	r2,-16(fp)
    458c:	e0fffb17 	ldw	r3,-20(fp)
    4590:	10c00115 	stw	r3,4(r2)
    4594:	e0bfff17 	ldw	r2,-4(fp)
    4598:	10800217 	ldw	r2,8(r2)
    459c:	e0bffe15 	stw	r2,-8(fp)
    45a0:	e0bffe17 	ldw	r2,-8(fp)
    45a4:	10000a15 	stw	zero,40(r2)
    45a8:	0001883a 	nop
    45ac:	e037883a 	mov	sp,fp
    45b0:	df000017 	ldw	fp,0(sp)
    45b4:	dec00104 	addi	sp,sp,4
    45b8:	f800283a 	ret

000045bc <OSMemCreate>:
    45bc:	defff404 	addi	sp,sp,-48
    45c0:	df000b15 	stw	fp,44(sp)
    45c4:	df000b04 	addi	fp,sp,44
    45c8:	e13ffc15 	stw	r4,-16(fp)
    45cc:	e17ffd15 	stw	r5,-12(fp)
    45d0:	e1bffe15 	stw	r6,-8(fp)
    45d4:	e1ffff15 	stw	r7,-4(fp)
    45d8:	e03ff815 	stw	zero,-32(fp)
    45dc:	e0bfff17 	ldw	r2,-4(fp)
    45e0:	1000021e 	bne	r2,zero,45ec <OSMemCreate+0x30>
    45e4:	0005883a 	mov	r2,zero
    45e8:	00006506 	br	4780 <OSMemCreate+0x1c4>
    45ec:	e0bffc17 	ldw	r2,-16(fp)
    45f0:	1000051e 	bne	r2,zero,4608 <OSMemCreate+0x4c>
    45f4:	e0bfff17 	ldw	r2,-4(fp)
    45f8:	00c01884 	movi	r3,98
    45fc:	10c00005 	stb	r3,0(r2)
    4600:	0005883a 	mov	r2,zero
    4604:	00005e06 	br	4780 <OSMemCreate+0x1c4>
    4608:	e0bffc17 	ldw	r2,-16(fp)
    460c:	108000cc 	andi	r2,r2,3
    4610:	10000526 	beq	r2,zero,4628 <OSMemCreate+0x6c>
    4614:	e0bfff17 	ldw	r2,-4(fp)
    4618:	00c01884 	movi	r3,98
    461c:	10c00005 	stb	r3,0(r2)
    4620:	0005883a 	mov	r2,zero
    4624:	00005606 	br	4780 <OSMemCreate+0x1c4>
    4628:	e0bffd17 	ldw	r2,-12(fp)
    462c:	108000a8 	cmpgeui	r2,r2,2
    4630:	1000051e 	bne	r2,zero,4648 <OSMemCreate+0x8c>
    4634:	e0bfff17 	ldw	r2,-4(fp)
    4638:	00c016c4 	movi	r3,91
    463c:	10c00005 	stb	r3,0(r2)
    4640:	0005883a 	mov	r2,zero
    4644:	00004e06 	br	4780 <OSMemCreate+0x1c4>
    4648:	e0bffe17 	ldw	r2,-8(fp)
    464c:	10800128 	cmpgeui	r2,r2,4
    4650:	1000051e 	bne	r2,zero,4668 <OSMemCreate+0xac>
    4654:	e0bfff17 	ldw	r2,-4(fp)
    4658:	00c01704 	movi	r3,92
    465c:	10c00005 	stb	r3,0(r2)
    4660:	0005883a 	mov	r2,zero
    4664:	00004606 	br	4780 <OSMemCreate+0x1c4>
    4668:	0005303a 	rdctl	r2,status
    466c:	e0bffb15 	stw	r2,-20(fp)
    4670:	e0fffb17 	ldw	r3,-20(fp)
    4674:	00bfff84 	movi	r2,-2
    4678:	1884703a 	and	r2,r3,r2
    467c:	1001703a 	wrctl	status,r2
    4680:	e0bffb17 	ldw	r2,-20(fp)
    4684:	e0bff815 	stw	r2,-32(fp)
    4688:	d0a6bd17 	ldw	r2,-25868(gp)
    468c:	e0bffa15 	stw	r2,-24(fp)
    4690:	d0a6bd17 	ldw	r2,-25868(gp)
    4694:	10000326 	beq	r2,zero,46a4 <OSMemCreate+0xe8>
    4698:	d0a6bd17 	ldw	r2,-25868(gp)
    469c:	10800117 	ldw	r2,4(r2)
    46a0:	d0a6bd15 	stw	r2,-25868(gp)
    46a4:	e0bff817 	ldw	r2,-32(fp)
    46a8:	e0bff915 	stw	r2,-28(fp)
    46ac:	e0bff917 	ldw	r2,-28(fp)
    46b0:	1001703a 	wrctl	status,r2
    46b4:	e0bffa17 	ldw	r2,-24(fp)
    46b8:	1000051e 	bne	r2,zero,46d0 <OSMemCreate+0x114>
    46bc:	e0bfff17 	ldw	r2,-4(fp)
    46c0:	00c01684 	movi	r3,90
    46c4:	10c00005 	stb	r3,0(r2)
    46c8:	0005883a 	mov	r2,zero
    46cc:	00002c06 	br	4780 <OSMemCreate+0x1c4>
    46d0:	e0bffc17 	ldw	r2,-16(fp)
    46d4:	e0bff615 	stw	r2,-40(fp)
    46d8:	e0fffc17 	ldw	r3,-16(fp)
    46dc:	e0bffe17 	ldw	r2,-8(fp)
    46e0:	1885883a 	add	r2,r3,r2
    46e4:	e0bff515 	stw	r2,-44(fp)
    46e8:	e03ff715 	stw	zero,-36(fp)
    46ec:	00000c06 	br	4720 <OSMemCreate+0x164>
    46f0:	e0bff617 	ldw	r2,-40(fp)
    46f4:	e0fff517 	ldw	r3,-44(fp)
    46f8:	10c00015 	stw	r3,0(r2)
    46fc:	e0bff517 	ldw	r2,-44(fp)
    4700:	e0bff615 	stw	r2,-40(fp)
    4704:	e0fff517 	ldw	r3,-44(fp)
    4708:	e0bffe17 	ldw	r2,-8(fp)
    470c:	1885883a 	add	r2,r3,r2
    4710:	e0bff515 	stw	r2,-44(fp)
    4714:	e0bff717 	ldw	r2,-36(fp)
    4718:	10800044 	addi	r2,r2,1
    471c:	e0bff715 	stw	r2,-36(fp)
    4720:	e0bffd17 	ldw	r2,-12(fp)
    4724:	10bfffc4 	addi	r2,r2,-1
    4728:	e0fff717 	ldw	r3,-36(fp)
    472c:	18bff036 	bltu	r3,r2,46f0 <OSMemCreate+0x134>
    4730:	e0bff617 	ldw	r2,-40(fp)
    4734:	10000015 	stw	zero,0(r2)
    4738:	e0bffa17 	ldw	r2,-24(fp)
    473c:	e0fffc17 	ldw	r3,-16(fp)
    4740:	10c00015 	stw	r3,0(r2)
    4744:	e0bffa17 	ldw	r2,-24(fp)
    4748:	e0fffc17 	ldw	r3,-16(fp)
    474c:	10c00115 	stw	r3,4(r2)
    4750:	e0bffa17 	ldw	r2,-24(fp)
    4754:	e0fffd17 	ldw	r3,-12(fp)
    4758:	10c00415 	stw	r3,16(r2)
    475c:	e0bffa17 	ldw	r2,-24(fp)
    4760:	e0fffd17 	ldw	r3,-12(fp)
    4764:	10c00315 	stw	r3,12(r2)
    4768:	e0bffa17 	ldw	r2,-24(fp)
    476c:	e0fffe17 	ldw	r3,-8(fp)
    4770:	10c00215 	stw	r3,8(r2)
    4774:	e0bfff17 	ldw	r2,-4(fp)
    4778:	10000005 	stb	zero,0(r2)
    477c:	e0bffa17 	ldw	r2,-24(fp)
    4780:	e037883a 	mov	sp,fp
    4784:	df000017 	ldw	fp,0(sp)
    4788:	dec00104 	addi	sp,sp,4
    478c:	f800283a 	ret

00004790 <OSMemGet>:
    4790:	defff804 	addi	sp,sp,-32
    4794:	df000715 	stw	fp,28(sp)
    4798:	df000704 	addi	fp,sp,28
    479c:	e13ffe15 	stw	r4,-8(fp)
    47a0:	e17fff15 	stw	r5,-4(fp)
    47a4:	e03ff915 	stw	zero,-28(fp)
    47a8:	e0bfff17 	ldw	r2,-4(fp)
    47ac:	1000021e 	bne	r2,zero,47b8 <OSMemGet+0x28>
    47b0:	0005883a 	mov	r2,zero
    47b4:	00002e06 	br	4870 <OSMemGet+0xe0>
    47b8:	e0bffe17 	ldw	r2,-8(fp)
    47bc:	1000051e 	bne	r2,zero,47d4 <OSMemGet+0x44>
    47c0:	e0bfff17 	ldw	r2,-4(fp)
    47c4:	00c01804 	movi	r3,96
    47c8:	10c00005 	stb	r3,0(r2)
    47cc:	0005883a 	mov	r2,zero
    47d0:	00002706 	br	4870 <OSMemGet+0xe0>
    47d4:	0005303a 	rdctl	r2,status
    47d8:	e0bffd15 	stw	r2,-12(fp)
    47dc:	e0fffd17 	ldw	r3,-12(fp)
    47e0:	00bfff84 	movi	r2,-2
    47e4:	1884703a 	and	r2,r3,r2
    47e8:	1001703a 	wrctl	status,r2
    47ec:	e0bffd17 	ldw	r2,-12(fp)
    47f0:	e0bff915 	stw	r2,-28(fp)
    47f4:	e0bffe17 	ldw	r2,-8(fp)
    47f8:	10800417 	ldw	r2,16(r2)
    47fc:	10001426 	beq	r2,zero,4850 <OSMemGet+0xc0>
    4800:	e0bffe17 	ldw	r2,-8(fp)
    4804:	10800117 	ldw	r2,4(r2)
    4808:	e0bffb15 	stw	r2,-20(fp)
    480c:	e0bffb17 	ldw	r2,-20(fp)
    4810:	10c00017 	ldw	r3,0(r2)
    4814:	e0bffe17 	ldw	r2,-8(fp)
    4818:	10c00115 	stw	r3,4(r2)
    481c:	e0bffe17 	ldw	r2,-8(fp)
    4820:	10800417 	ldw	r2,16(r2)
    4824:	10ffffc4 	addi	r3,r2,-1
    4828:	e0bffe17 	ldw	r2,-8(fp)
    482c:	10c00415 	stw	r3,16(r2)
    4830:	e0bff917 	ldw	r2,-28(fp)
    4834:	e0bffa15 	stw	r2,-24(fp)
    4838:	e0bffa17 	ldw	r2,-24(fp)
    483c:	1001703a 	wrctl	status,r2
    4840:	e0bfff17 	ldw	r2,-4(fp)
    4844:	10000005 	stb	zero,0(r2)
    4848:	e0bffb17 	ldw	r2,-20(fp)
    484c:	00000806 	br	4870 <OSMemGet+0xe0>
    4850:	e0bff917 	ldw	r2,-28(fp)
    4854:	e0bffc15 	stw	r2,-16(fp)
    4858:	e0bffc17 	ldw	r2,-16(fp)
    485c:	1001703a 	wrctl	status,r2
    4860:	e0bfff17 	ldw	r2,-4(fp)
    4864:	00c01744 	movi	r3,93
    4868:	10c00005 	stb	r3,0(r2)
    486c:	0005883a 	mov	r2,zero
    4870:	e037883a 	mov	sp,fp
    4874:	df000017 	ldw	fp,0(sp)
    4878:	dec00104 	addi	sp,sp,4
    487c:	f800283a 	ret

00004880 <OSMemNameGet>:
    4880:	defff704 	addi	sp,sp,-36
    4884:	dfc00815 	stw	ra,32(sp)
    4888:	df000715 	stw	fp,28(sp)
    488c:	df000704 	addi	fp,sp,28
    4890:	e13ffd15 	stw	r4,-12(fp)
    4894:	e17ffe15 	stw	r5,-8(fp)
    4898:	e1bfff15 	stw	r6,-4(fp)
    489c:	e03ff915 	stw	zero,-28(fp)
    48a0:	e0bfff17 	ldw	r2,-4(fp)
    48a4:	1000021e 	bne	r2,zero,48b0 <OSMemNameGet+0x30>
    48a8:	0005883a 	mov	r2,zero
    48ac:	00002b06 	br	495c <OSMemNameGet+0xdc>
    48b0:	e0bffd17 	ldw	r2,-12(fp)
    48b4:	1000051e 	bne	r2,zero,48cc <OSMemNameGet+0x4c>
    48b8:	e0bfff17 	ldw	r2,-4(fp)
    48bc:	00c01804 	movi	r3,96
    48c0:	10c00005 	stb	r3,0(r2)
    48c4:	0005883a 	mov	r2,zero
    48c8:	00002406 	br	495c <OSMemNameGet+0xdc>
    48cc:	e0bffe17 	ldw	r2,-8(fp)
    48d0:	1000051e 	bne	r2,zero,48e8 <OSMemNameGet+0x68>
    48d4:	e0bfff17 	ldw	r2,-4(fp)
    48d8:	00c00304 	movi	r3,12
    48dc:	10c00005 	stb	r3,0(r2)
    48e0:	0005883a 	mov	r2,zero
    48e4:	00001d06 	br	495c <OSMemNameGet+0xdc>
    48e8:	d0a6c203 	ldbu	r2,-25848(gp)
    48ec:	10803fcc 	andi	r2,r2,255
    48f0:	10000526 	beq	r2,zero,4908 <OSMemNameGet+0x88>
    48f4:	e0bfff17 	ldw	r2,-4(fp)
    48f8:	00c00444 	movi	r3,17
    48fc:	10c00005 	stb	r3,0(r2)
    4900:	0005883a 	mov	r2,zero
    4904:	00001506 	br	495c <OSMemNameGet+0xdc>
    4908:	0005303a 	rdctl	r2,status
    490c:	e0bffb15 	stw	r2,-20(fp)
    4910:	e0fffb17 	ldw	r3,-20(fp)
    4914:	00bfff84 	movi	r2,-2
    4918:	1884703a 	and	r2,r3,r2
    491c:	1001703a 	wrctl	status,r2
    4920:	e0bffb17 	ldw	r2,-20(fp)
    4924:	e0bff915 	stw	r2,-28(fp)
    4928:	e0bffd17 	ldw	r2,-12(fp)
    492c:	10800504 	addi	r2,r2,20
    4930:	100b883a 	mov	r5,r2
    4934:	e13ffe17 	ldw	r4,-8(fp)
    4938:	00027780 	call	2778 <OS_StrCopy>
    493c:	e0bffa05 	stb	r2,-24(fp)
    4940:	e0bff917 	ldw	r2,-28(fp)
    4944:	e0bffc15 	stw	r2,-16(fp)
    4948:	e0bffc17 	ldw	r2,-16(fp)
    494c:	1001703a 	wrctl	status,r2
    4950:	e0bfff17 	ldw	r2,-4(fp)
    4954:	10000005 	stb	zero,0(r2)
    4958:	e0bffa03 	ldbu	r2,-24(fp)
    495c:	e037883a 	mov	sp,fp
    4960:	dfc00117 	ldw	ra,4(sp)
    4964:	df000017 	ldw	fp,0(sp)
    4968:	dec00204 	addi	sp,sp,8
    496c:	f800283a 	ret

00004970 <OSMemNameSet>:
    4970:	defff604 	addi	sp,sp,-40
    4974:	dfc00915 	stw	ra,36(sp)
    4978:	df000815 	stw	fp,32(sp)
    497c:	df000804 	addi	fp,sp,32
    4980:	e13ffd15 	stw	r4,-12(fp)
    4984:	e17ffe15 	stw	r5,-8(fp)
    4988:	e1bfff15 	stw	r6,-4(fp)
    498c:	e03ff815 	stw	zero,-32(fp)
    4990:	e0bfff17 	ldw	r2,-4(fp)
    4994:	10003526 	beq	r2,zero,4a6c <OSMemNameSet+0xfc>
    4998:	e0bffd17 	ldw	r2,-12(fp)
    499c:	1000041e 	bne	r2,zero,49b0 <OSMemNameSet+0x40>
    49a0:	e0bfff17 	ldw	r2,-4(fp)
    49a4:	00c01804 	movi	r3,96
    49a8:	10c00005 	stb	r3,0(r2)
    49ac:	00003006 	br	4a70 <OSMemNameSet+0x100>
    49b0:	e0bffe17 	ldw	r2,-8(fp)
    49b4:	1000041e 	bne	r2,zero,49c8 <OSMemNameSet+0x58>
    49b8:	e0bfff17 	ldw	r2,-4(fp)
    49bc:	00c00304 	movi	r3,12
    49c0:	10c00005 	stb	r3,0(r2)
    49c4:	00002a06 	br	4a70 <OSMemNameSet+0x100>
    49c8:	d0a6c203 	ldbu	r2,-25848(gp)
    49cc:	10803fcc 	andi	r2,r2,255
    49d0:	10000426 	beq	r2,zero,49e4 <OSMemNameSet+0x74>
    49d4:	e0bfff17 	ldw	r2,-4(fp)
    49d8:	00c00484 	movi	r3,18
    49dc:	10c00005 	stb	r3,0(r2)
    49e0:	00002306 	br	4a70 <OSMemNameSet+0x100>
    49e4:	0005303a 	rdctl	r2,status
    49e8:	e0bffc15 	stw	r2,-16(fp)
    49ec:	e0fffc17 	ldw	r3,-16(fp)
    49f0:	00bfff84 	movi	r2,-2
    49f4:	1884703a 	and	r2,r3,r2
    49f8:	1001703a 	wrctl	status,r2
    49fc:	e0bffc17 	ldw	r2,-16(fp)
    4a00:	e0bff815 	stw	r2,-32(fp)
    4a04:	e13ffe17 	ldw	r4,-8(fp)
    4a08:	00027ec0 	call	27ec <OS_StrLen>
    4a0c:	e0bffa05 	stb	r2,-24(fp)
    4a10:	e0bffa03 	ldbu	r2,-24(fp)
    4a14:	10800830 	cmpltui	r2,r2,32
    4a18:	1000081e 	bne	r2,zero,4a3c <OSMemNameSet+0xcc>
    4a1c:	e0bff817 	ldw	r2,-32(fp)
    4a20:	e0bff915 	stw	r2,-28(fp)
    4a24:	e0bff917 	ldw	r2,-28(fp)
    4a28:	1001703a 	wrctl	status,r2
    4a2c:	e0bfff17 	ldw	r2,-4(fp)
    4a30:	00c018c4 	movi	r3,99
    4a34:	10c00005 	stb	r3,0(r2)
    4a38:	00000d06 	br	4a70 <OSMemNameSet+0x100>
    4a3c:	e0bffd17 	ldw	r2,-12(fp)
    4a40:	10800504 	addi	r2,r2,20
    4a44:	e17ffe17 	ldw	r5,-8(fp)
    4a48:	1009883a 	mov	r4,r2
    4a4c:	00027780 	call	2778 <OS_StrCopy>
    4a50:	e0bff817 	ldw	r2,-32(fp)
    4a54:	e0bffb15 	stw	r2,-20(fp)
    4a58:	e0bffb17 	ldw	r2,-20(fp)
    4a5c:	1001703a 	wrctl	status,r2
    4a60:	e0bfff17 	ldw	r2,-4(fp)
    4a64:	10000005 	stb	zero,0(r2)
    4a68:	00000106 	br	4a70 <OSMemNameSet+0x100>
    4a6c:	0001883a 	nop
    4a70:	e037883a 	mov	sp,fp
    4a74:	dfc00117 	ldw	ra,4(sp)
    4a78:	df000017 	ldw	fp,0(sp)
    4a7c:	dec00204 	addi	sp,sp,8
    4a80:	f800283a 	ret

00004a84 <OSMemPut>:
    4a84:	defff904 	addi	sp,sp,-28
    4a88:	df000615 	stw	fp,24(sp)
    4a8c:	df000604 	addi	fp,sp,24
    4a90:	e13ffe15 	stw	r4,-8(fp)
    4a94:	e17fff15 	stw	r5,-4(fp)
    4a98:	e03ffa15 	stw	zero,-24(fp)
    4a9c:	e0bffe17 	ldw	r2,-8(fp)
    4aa0:	1000021e 	bne	r2,zero,4aac <OSMemPut+0x28>
    4aa4:	00801804 	movi	r2,96
    4aa8:	00002806 	br	4b4c <OSMemPut+0xc8>
    4aac:	e0bfff17 	ldw	r2,-4(fp)
    4ab0:	1000021e 	bne	r2,zero,4abc <OSMemPut+0x38>
    4ab4:	008017c4 	movi	r2,95
    4ab8:	00002406 	br	4b4c <OSMemPut+0xc8>
    4abc:	0005303a 	rdctl	r2,status
    4ac0:	e0bffd15 	stw	r2,-12(fp)
    4ac4:	e0fffd17 	ldw	r3,-12(fp)
    4ac8:	00bfff84 	movi	r2,-2
    4acc:	1884703a 	and	r2,r3,r2
    4ad0:	1001703a 	wrctl	status,r2
    4ad4:	e0bffd17 	ldw	r2,-12(fp)
    4ad8:	e0bffa15 	stw	r2,-24(fp)
    4adc:	e0bffe17 	ldw	r2,-8(fp)
    4ae0:	10c00417 	ldw	r3,16(r2)
    4ae4:	e0bffe17 	ldw	r2,-8(fp)
    4ae8:	10800317 	ldw	r2,12(r2)
    4aec:	18800636 	bltu	r3,r2,4b08 <OSMemPut+0x84>
    4af0:	e0bffa17 	ldw	r2,-24(fp)
    4af4:	e0bffb15 	stw	r2,-20(fp)
    4af8:	e0bffb17 	ldw	r2,-20(fp)
    4afc:	1001703a 	wrctl	status,r2
    4b00:	00801784 	movi	r2,94
    4b04:	00001106 	br	4b4c <OSMemPut+0xc8>
    4b08:	e0bffe17 	ldw	r2,-8(fp)
    4b0c:	10c00117 	ldw	r3,4(r2)
    4b10:	e0bfff17 	ldw	r2,-4(fp)
    4b14:	10c00015 	stw	r3,0(r2)
    4b18:	e0bffe17 	ldw	r2,-8(fp)
    4b1c:	e0ffff17 	ldw	r3,-4(fp)
    4b20:	10c00115 	stw	r3,4(r2)
    4b24:	e0bffe17 	ldw	r2,-8(fp)
    4b28:	10800417 	ldw	r2,16(r2)
    4b2c:	10c00044 	addi	r3,r2,1
    4b30:	e0bffe17 	ldw	r2,-8(fp)
    4b34:	10c00415 	stw	r3,16(r2)
    4b38:	e0bffa17 	ldw	r2,-24(fp)
    4b3c:	e0bffc15 	stw	r2,-16(fp)
    4b40:	e0bffc17 	ldw	r2,-16(fp)
    4b44:	1001703a 	wrctl	status,r2
    4b48:	0005883a 	mov	r2,zero
    4b4c:	e037883a 	mov	sp,fp
    4b50:	df000017 	ldw	fp,0(sp)
    4b54:	dec00104 	addi	sp,sp,4
    4b58:	f800283a 	ret

00004b5c <OSMemQuery>:
    4b5c:	defffa04 	addi	sp,sp,-24
    4b60:	df000515 	stw	fp,20(sp)
    4b64:	df000504 	addi	fp,sp,20
    4b68:	e13ffe15 	stw	r4,-8(fp)
    4b6c:	e17fff15 	stw	r5,-4(fp)
    4b70:	e03ffb15 	stw	zero,-20(fp)
    4b74:	e0bffe17 	ldw	r2,-8(fp)
    4b78:	1000021e 	bne	r2,zero,4b84 <OSMemQuery+0x28>
    4b7c:	00801804 	movi	r2,96
    4b80:	00002c06 	br	4c34 <OSMemQuery+0xd8>
    4b84:	e0bfff17 	ldw	r2,-4(fp)
    4b88:	1000021e 	bne	r2,zero,4b94 <OSMemQuery+0x38>
    4b8c:	00801844 	movi	r2,97
    4b90:	00002806 	br	4c34 <OSMemQuery+0xd8>
    4b94:	0005303a 	rdctl	r2,status
    4b98:	e0bffc15 	stw	r2,-16(fp)
    4b9c:	e0fffc17 	ldw	r3,-16(fp)
    4ba0:	00bfff84 	movi	r2,-2
    4ba4:	1884703a 	and	r2,r3,r2
    4ba8:	1001703a 	wrctl	status,r2
    4bac:	e0bffc17 	ldw	r2,-16(fp)
    4bb0:	e0bffb15 	stw	r2,-20(fp)
    4bb4:	e0bffe17 	ldw	r2,-8(fp)
    4bb8:	10c00017 	ldw	r3,0(r2)
    4bbc:	e0bfff17 	ldw	r2,-4(fp)
    4bc0:	10c00015 	stw	r3,0(r2)
    4bc4:	e0bffe17 	ldw	r2,-8(fp)
    4bc8:	10c00117 	ldw	r3,4(r2)
    4bcc:	e0bfff17 	ldw	r2,-4(fp)
    4bd0:	10c00115 	stw	r3,4(r2)
    4bd4:	e0bffe17 	ldw	r2,-8(fp)
    4bd8:	10c00217 	ldw	r3,8(r2)
    4bdc:	e0bfff17 	ldw	r2,-4(fp)
    4be0:	10c00215 	stw	r3,8(r2)
    4be4:	e0bffe17 	ldw	r2,-8(fp)
    4be8:	10c00317 	ldw	r3,12(r2)
    4bec:	e0bfff17 	ldw	r2,-4(fp)
    4bf0:	10c00315 	stw	r3,12(r2)
    4bf4:	e0bffe17 	ldw	r2,-8(fp)
    4bf8:	10c00417 	ldw	r3,16(r2)
    4bfc:	e0bfff17 	ldw	r2,-4(fp)
    4c00:	10c00415 	stw	r3,16(r2)
    4c04:	e0bffb17 	ldw	r2,-20(fp)
    4c08:	e0bffd15 	stw	r2,-12(fp)
    4c0c:	e0bffd17 	ldw	r2,-12(fp)
    4c10:	1001703a 	wrctl	status,r2
    4c14:	e0bfff17 	ldw	r2,-4(fp)
    4c18:	10c00317 	ldw	r3,12(r2)
    4c1c:	e0bfff17 	ldw	r2,-4(fp)
    4c20:	10800417 	ldw	r2,16(r2)
    4c24:	1887c83a 	sub	r3,r3,r2
    4c28:	e0bfff17 	ldw	r2,-4(fp)
    4c2c:	10c00515 	stw	r3,20(r2)
    4c30:	0005883a 	mov	r2,zero
    4c34:	e037883a 	mov	sp,fp
    4c38:	df000017 	ldw	fp,0(sp)
    4c3c:	dec00104 	addi	sp,sp,4
    4c40:	f800283a 	ret

00004c44 <OS_MemInit>:
    4c44:	defffc04 	addi	sp,sp,-16
    4c48:	dfc00315 	stw	ra,12(sp)
    4c4c:	df000215 	stw	fp,8(sp)
    4c50:	df000204 	addi	fp,sp,8
    4c54:	01430c04 	movi	r5,3120
    4c58:	01000074 	movhi	r4,1
    4c5c:	2110ce04 	addi	r4,r4,17208
    4c60:	00025780 	call	2578 <OS_MemClr>
    4c64:	00800074 	movhi	r2,1
    4c68:	1090ce04 	addi	r2,r2,17208
    4c6c:	e0bffe15 	stw	r2,-8(fp)
    4c70:	e03fff0d 	sth	zero,-4(fp)
    4c74:	00001306 	br	4cc4 <OS_MemInit+0x80>
    4c78:	e0bfff0b 	ldhu	r2,-4(fp)
    4c7c:	10800044 	addi	r2,r2,1
    4c80:	10c00d24 	muli	r3,r2,52
    4c84:	00800074 	movhi	r2,1
    4c88:	1090ce04 	addi	r2,r2,17208
    4c8c:	1887883a 	add	r3,r3,r2
    4c90:	e0bffe17 	ldw	r2,-8(fp)
    4c94:	10c00115 	stw	r3,4(r2)
    4c98:	e0bffe17 	ldw	r2,-8(fp)
    4c9c:	00c00fc4 	movi	r3,63
    4ca0:	10c00505 	stb	r3,20(r2)
    4ca4:	e0bffe17 	ldw	r2,-8(fp)
    4ca8:	10000545 	stb	zero,21(r2)
    4cac:	e0bffe17 	ldw	r2,-8(fp)
    4cb0:	10800d04 	addi	r2,r2,52
    4cb4:	e0bffe15 	stw	r2,-8(fp)
    4cb8:	e0bfff0b 	ldhu	r2,-4(fp)
    4cbc:	10800044 	addi	r2,r2,1
    4cc0:	e0bfff0d 	sth	r2,-4(fp)
    4cc4:	e0bfff0b 	ldhu	r2,-4(fp)
    4cc8:	10800ef0 	cmpltui	r2,r2,59
    4ccc:	103fea1e 	bne	r2,zero,4c78 <OS_MemInit+0x34>
    4cd0:	e0bffe17 	ldw	r2,-8(fp)
    4cd4:	10000115 	stw	zero,4(r2)
    4cd8:	e0bffe17 	ldw	r2,-8(fp)
    4cdc:	00c00fc4 	movi	r3,63
    4ce0:	10c00505 	stb	r3,20(r2)
    4ce4:	e0bffe17 	ldw	r2,-8(fp)
    4ce8:	10000545 	stb	zero,21(r2)
    4cec:	00800074 	movhi	r2,1
    4cf0:	1090ce04 	addi	r2,r2,17208
    4cf4:	d0a6bd15 	stw	r2,-25868(gp)
    4cf8:	0001883a 	nop
    4cfc:	e037883a 	mov	sp,fp
    4d00:	dfc00117 	ldw	ra,4(sp)
    4d04:	df000017 	ldw	fp,0(sp)
    4d08:	dec00204 	addi	sp,sp,8
    4d0c:	f800283a 	ret

00004d10 <OSQAccept>:
    4d10:	defff804 	addi	sp,sp,-32
    4d14:	df000715 	stw	fp,28(sp)
    4d18:	df000704 	addi	fp,sp,28
    4d1c:	e13ffe15 	stw	r4,-8(fp)
    4d20:	e17fff15 	stw	r5,-4(fp)
    4d24:	e03ffa15 	stw	zero,-24(fp)
    4d28:	e0bfff17 	ldw	r2,-4(fp)
    4d2c:	1000021e 	bne	r2,zero,4d38 <OSQAccept+0x28>
    4d30:	0005883a 	mov	r2,zero
    4d34:	00004206 	br	4e40 <OSQAccept+0x130>
    4d38:	e0bffe17 	ldw	r2,-8(fp)
    4d3c:	1000051e 	bne	r2,zero,4d54 <OSQAccept+0x44>
    4d40:	e0bfff17 	ldw	r2,-4(fp)
    4d44:	00c00104 	movi	r3,4
    4d48:	10c00005 	stb	r3,0(r2)
    4d4c:	0005883a 	mov	r2,zero
    4d50:	00003b06 	br	4e40 <OSQAccept+0x130>
    4d54:	e0bffe17 	ldw	r2,-8(fp)
    4d58:	10800003 	ldbu	r2,0(r2)
    4d5c:	10803fcc 	andi	r2,r2,255
    4d60:	108000a0 	cmpeqi	r2,r2,2
    4d64:	1000051e 	bne	r2,zero,4d7c <OSQAccept+0x6c>
    4d68:	e0bfff17 	ldw	r2,-4(fp)
    4d6c:	00c00044 	movi	r3,1
    4d70:	10c00005 	stb	r3,0(r2)
    4d74:	0005883a 	mov	r2,zero
    4d78:	00003106 	br	4e40 <OSQAccept+0x130>
    4d7c:	0005303a 	rdctl	r2,status
    4d80:	e0bffd15 	stw	r2,-12(fp)
    4d84:	e0fffd17 	ldw	r3,-12(fp)
    4d88:	00bfff84 	movi	r2,-2
    4d8c:	1884703a 	and	r2,r3,r2
    4d90:	1001703a 	wrctl	status,r2
    4d94:	e0bffd17 	ldw	r2,-12(fp)
    4d98:	e0bffa15 	stw	r2,-24(fp)
    4d9c:	e0bffe17 	ldw	r2,-8(fp)
    4da0:	10800117 	ldw	r2,4(r2)
    4da4:	e0bffc15 	stw	r2,-16(fp)
    4da8:	e0bffc17 	ldw	r2,-16(fp)
    4dac:	1080058b 	ldhu	r2,22(r2)
    4db0:	10bfffcc 	andi	r2,r2,65535
    4db4:	10001926 	beq	r2,zero,4e1c <OSQAccept+0x10c>
    4db8:	e0bffc17 	ldw	r2,-16(fp)
    4dbc:	10800417 	ldw	r2,16(r2)
    4dc0:	11000104 	addi	r4,r2,4
    4dc4:	e0fffc17 	ldw	r3,-16(fp)
    4dc8:	19000415 	stw	r4,16(r3)
    4dcc:	10800017 	ldw	r2,0(r2)
    4dd0:	e0bff915 	stw	r2,-28(fp)
    4dd4:	e0bffc17 	ldw	r2,-16(fp)
    4dd8:	1080058b 	ldhu	r2,22(r2)
    4ddc:	10bfffc4 	addi	r2,r2,-1
    4de0:	1007883a 	mov	r3,r2
    4de4:	e0bffc17 	ldw	r2,-16(fp)
    4de8:	10c0058d 	sth	r3,22(r2)
    4dec:	e0bffc17 	ldw	r2,-16(fp)
    4df0:	10c00417 	ldw	r3,16(r2)
    4df4:	e0bffc17 	ldw	r2,-16(fp)
    4df8:	10800217 	ldw	r2,8(r2)
    4dfc:	1880041e 	bne	r3,r2,4e10 <OSQAccept+0x100>
    4e00:	e0bffc17 	ldw	r2,-16(fp)
    4e04:	10c00117 	ldw	r3,4(r2)
    4e08:	e0bffc17 	ldw	r2,-16(fp)
    4e0c:	10c00415 	stw	r3,16(r2)
    4e10:	e0bfff17 	ldw	r2,-4(fp)
    4e14:	10000005 	stb	zero,0(r2)
    4e18:	00000406 	br	4e2c <OSQAccept+0x11c>
    4e1c:	e0bfff17 	ldw	r2,-4(fp)
    4e20:	00c007c4 	movi	r3,31
    4e24:	10c00005 	stb	r3,0(r2)
    4e28:	e03ff915 	stw	zero,-28(fp)
    4e2c:	e0bffa17 	ldw	r2,-24(fp)
    4e30:	e0bffb15 	stw	r2,-20(fp)
    4e34:	e0bffb17 	ldw	r2,-20(fp)
    4e38:	1001703a 	wrctl	status,r2
    4e3c:	e0bff917 	ldw	r2,-28(fp)
    4e40:	e037883a 	mov	sp,fp
    4e44:	df000017 	ldw	fp,0(sp)
    4e48:	dec00104 	addi	sp,sp,4
    4e4c:	f800283a 	ret

00004e50 <OSQCreate>:
    4e50:	defff404 	addi	sp,sp,-48
    4e54:	dfc00b15 	stw	ra,44(sp)
    4e58:	df000a15 	stw	fp,40(sp)
    4e5c:	df000a04 	addi	fp,sp,40
    4e60:	e13ffe15 	stw	r4,-8(fp)
    4e64:	2805883a 	mov	r2,r5
    4e68:	e0bfff0d 	sth	r2,-4(fp)
    4e6c:	e03ff715 	stw	zero,-36(fp)
    4e70:	d0a6c203 	ldbu	r2,-25848(gp)
    4e74:	10803fcc 	andi	r2,r2,255
    4e78:	10000226 	beq	r2,zero,4e84 <OSQCreate+0x34>
    4e7c:	0005883a 	mov	r2,zero
    4e80:	00005906 	br	4fe8 <OSQCreate+0x198>
    4e84:	0005303a 	rdctl	r2,status
    4e88:	e0bffd15 	stw	r2,-12(fp)
    4e8c:	e0fffd17 	ldw	r3,-12(fp)
    4e90:	00bfff84 	movi	r2,-2
    4e94:	1884703a 	and	r2,r3,r2
    4e98:	1001703a 	wrctl	status,r2
    4e9c:	e0bffd17 	ldw	r2,-12(fp)
    4ea0:	e0bff715 	stw	r2,-36(fp)
    4ea4:	d0a6c117 	ldw	r2,-25852(gp)
    4ea8:	e0bff615 	stw	r2,-40(fp)
    4eac:	d0a6c117 	ldw	r2,-25852(gp)
    4eb0:	10000326 	beq	r2,zero,4ec0 <OSQCreate+0x70>
    4eb4:	d0a6c117 	ldw	r2,-25852(gp)
    4eb8:	10800117 	ldw	r2,4(r2)
    4ebc:	d0a6c115 	stw	r2,-25852(gp)
    4ec0:	e0bff717 	ldw	r2,-36(fp)
    4ec4:	e0bff815 	stw	r2,-32(fp)
    4ec8:	e0bff817 	ldw	r2,-32(fp)
    4ecc:	1001703a 	wrctl	status,r2
    4ed0:	e0bff617 	ldw	r2,-40(fp)
    4ed4:	10004326 	beq	r2,zero,4fe4 <OSQCreate+0x194>
    4ed8:	0005303a 	rdctl	r2,status
    4edc:	e0bff915 	stw	r2,-28(fp)
    4ee0:	e0fff917 	ldw	r3,-28(fp)
    4ee4:	00bfff84 	movi	r2,-2
    4ee8:	1884703a 	and	r2,r3,r2
    4eec:	1001703a 	wrctl	status,r2
    4ef0:	e0bff917 	ldw	r2,-28(fp)
    4ef4:	e0bff715 	stw	r2,-36(fp)
    4ef8:	d0a6bf17 	ldw	r2,-25860(gp)
    4efc:	e0bffb15 	stw	r2,-20(fp)
    4f00:	e0bffb17 	ldw	r2,-20(fp)
    4f04:	10002d26 	beq	r2,zero,4fbc <OSQCreate+0x16c>
    4f08:	d0a6bf17 	ldw	r2,-25860(gp)
    4f0c:	10800017 	ldw	r2,0(r2)
    4f10:	d0a6bf15 	stw	r2,-25860(gp)
    4f14:	e0bff717 	ldw	r2,-36(fp)
    4f18:	e0bffa15 	stw	r2,-24(fp)
    4f1c:	e0bffa17 	ldw	r2,-24(fp)
    4f20:	1001703a 	wrctl	status,r2
    4f24:	e0bffb17 	ldw	r2,-20(fp)
    4f28:	e0fffe17 	ldw	r3,-8(fp)
    4f2c:	10c00115 	stw	r3,4(r2)
    4f30:	e0bfff0b 	ldhu	r2,-4(fp)
    4f34:	1085883a 	add	r2,r2,r2
    4f38:	1085883a 	add	r2,r2,r2
    4f3c:	1007883a 	mov	r3,r2
    4f40:	e0bffe17 	ldw	r2,-8(fp)
    4f44:	10c7883a 	add	r3,r2,r3
    4f48:	e0bffb17 	ldw	r2,-20(fp)
    4f4c:	10c00215 	stw	r3,8(r2)
    4f50:	e0bffb17 	ldw	r2,-20(fp)
    4f54:	e0fffe17 	ldw	r3,-8(fp)
    4f58:	10c00315 	stw	r3,12(r2)
    4f5c:	e0bffb17 	ldw	r2,-20(fp)
    4f60:	e0fffe17 	ldw	r3,-8(fp)
    4f64:	10c00415 	stw	r3,16(r2)
    4f68:	e0bffb17 	ldw	r2,-20(fp)
    4f6c:	e0ffff0b 	ldhu	r3,-4(fp)
    4f70:	10c0050d 	sth	r3,20(r2)
    4f74:	e0bffb17 	ldw	r2,-20(fp)
    4f78:	1000058d 	sth	zero,22(r2)
    4f7c:	e0bff617 	ldw	r2,-40(fp)
    4f80:	00c00084 	movi	r3,2
    4f84:	10c00005 	stb	r3,0(r2)
    4f88:	e0bff617 	ldw	r2,-40(fp)
    4f8c:	1000020d 	sth	zero,8(r2)
    4f90:	e0bff617 	ldw	r2,-40(fp)
    4f94:	e0fffb17 	ldw	r3,-20(fp)
    4f98:	10c00115 	stw	r3,4(r2)
    4f9c:	e0bff617 	ldw	r2,-40(fp)
    4fa0:	00c00fc4 	movi	r3,63
    4fa4:	10c00385 	stb	r3,14(r2)
    4fa8:	e0bff617 	ldw	r2,-40(fp)
    4fac:	100003c5 	stb	zero,15(r2)
    4fb0:	e13ff617 	ldw	r4,-40(fp)
    4fb4:	00021980 	call	2198 <OS_EventWaitListInit>
    4fb8:	00000a06 	br	4fe4 <OSQCreate+0x194>
    4fbc:	d0e6c117 	ldw	r3,-25852(gp)
    4fc0:	e0bff617 	ldw	r2,-40(fp)
    4fc4:	10c00115 	stw	r3,4(r2)
    4fc8:	e0bff617 	ldw	r2,-40(fp)
    4fcc:	d0a6c115 	stw	r2,-25852(gp)
    4fd0:	e0bff717 	ldw	r2,-36(fp)
    4fd4:	e0bffc15 	stw	r2,-16(fp)
    4fd8:	e0bffc17 	ldw	r2,-16(fp)
    4fdc:	1001703a 	wrctl	status,r2
    4fe0:	e03ff615 	stw	zero,-40(fp)
    4fe4:	e0bff617 	ldw	r2,-40(fp)
    4fe8:	e037883a 	mov	sp,fp
    4fec:	dfc00117 	ldw	ra,4(sp)
    4ff0:	df000017 	ldw	fp,0(sp)
    4ff4:	dec00204 	addi	sp,sp,8
    4ff8:	f800283a 	ret

00004ffc <OSQDel>:
    4ffc:	defff204 	addi	sp,sp,-56
    5000:	dfc00d15 	stw	ra,52(sp)
    5004:	df000c15 	stw	fp,48(sp)
    5008:	df000c04 	addi	fp,sp,48
    500c:	e13ffd15 	stw	r4,-12(fp)
    5010:	2805883a 	mov	r2,r5
    5014:	e1bfff15 	stw	r6,-4(fp)
    5018:	e0bffe05 	stb	r2,-8(fp)
    501c:	e03ff615 	stw	zero,-40(fp)
    5020:	e0bfff17 	ldw	r2,-4(fp)
    5024:	1000021e 	bne	r2,zero,5030 <OSQDel+0x34>
    5028:	e0bffd17 	ldw	r2,-12(fp)
    502c:	00008e06 	br	5268 <OSQDel+0x26c>
    5030:	e0bffd17 	ldw	r2,-12(fp)
    5034:	1000051e 	bne	r2,zero,504c <OSQDel+0x50>
    5038:	e0bfff17 	ldw	r2,-4(fp)
    503c:	00c00104 	movi	r3,4
    5040:	10c00005 	stb	r3,0(r2)
    5044:	e0bffd17 	ldw	r2,-12(fp)
    5048:	00008706 	br	5268 <OSQDel+0x26c>
    504c:	e0bffd17 	ldw	r2,-12(fp)
    5050:	10800003 	ldbu	r2,0(r2)
    5054:	10803fcc 	andi	r2,r2,255
    5058:	108000a0 	cmpeqi	r2,r2,2
    505c:	1000051e 	bne	r2,zero,5074 <OSQDel+0x78>
    5060:	e0bfff17 	ldw	r2,-4(fp)
    5064:	00c00044 	movi	r3,1
    5068:	10c00005 	stb	r3,0(r2)
    506c:	e0bffd17 	ldw	r2,-12(fp)
    5070:	00007d06 	br	5268 <OSQDel+0x26c>
    5074:	d0a6c203 	ldbu	r2,-25848(gp)
    5078:	10803fcc 	andi	r2,r2,255
    507c:	10000526 	beq	r2,zero,5094 <OSQDel+0x98>
    5080:	e0bfff17 	ldw	r2,-4(fp)
    5084:	00c003c4 	movi	r3,15
    5088:	10c00005 	stb	r3,0(r2)
    508c:	e0bffd17 	ldw	r2,-12(fp)
    5090:	00007506 	br	5268 <OSQDel+0x26c>
    5094:	0005303a 	rdctl	r2,status
    5098:	e0bffc15 	stw	r2,-16(fp)
    509c:	e0fffc17 	ldw	r3,-16(fp)
    50a0:	00bfff84 	movi	r2,-2
    50a4:	1884703a 	and	r2,r3,r2
    50a8:	1001703a 	wrctl	status,r2
    50ac:	e0bffc17 	ldw	r2,-16(fp)
    50b0:	e0bff615 	stw	r2,-40(fp)
    50b4:	e0bffd17 	ldw	r2,-12(fp)
    50b8:	10800283 	ldbu	r2,10(r2)
    50bc:	10803fcc 	andi	r2,r2,255
    50c0:	10000326 	beq	r2,zero,50d0 <OSQDel+0xd4>
    50c4:	00800044 	movi	r2,1
    50c8:	e0bff405 	stb	r2,-48(fp)
    50cc:	00000106 	br	50d4 <OSQDel+0xd8>
    50d0:	e03ff405 	stb	zero,-48(fp)
    50d4:	e0bffe03 	ldbu	r2,-8(fp)
    50d8:	10000326 	beq	r2,zero,50e8 <OSQDel+0xec>
    50dc:	10800060 	cmpeqi	r2,r2,1
    50e0:	1000301e 	bne	r2,zero,51a4 <OSQDel+0x1a8>
    50e4:	00005506 	br	523c <OSQDel+0x240>
    50e8:	e0bff403 	ldbu	r2,-48(fp)
    50ec:	10001e1e 	bne	r2,zero,5168 <OSQDel+0x16c>
    50f0:	e0bffd17 	ldw	r2,-12(fp)
    50f4:	00c00fc4 	movi	r3,63
    50f8:	10c00385 	stb	r3,14(r2)
    50fc:	e0bffd17 	ldw	r2,-12(fp)
    5100:	100003c5 	stb	zero,15(r2)
    5104:	e0bffd17 	ldw	r2,-12(fp)
    5108:	10800117 	ldw	r2,4(r2)
    510c:	e0bff815 	stw	r2,-32(fp)
    5110:	d0e6bf17 	ldw	r3,-25860(gp)
    5114:	e0bff817 	ldw	r2,-32(fp)
    5118:	10c00015 	stw	r3,0(r2)
    511c:	e0bff817 	ldw	r2,-32(fp)
    5120:	d0a6bf15 	stw	r2,-25860(gp)
    5124:	e0bffd17 	ldw	r2,-12(fp)
    5128:	10000005 	stb	zero,0(r2)
    512c:	d0e6c117 	ldw	r3,-25852(gp)
    5130:	e0bffd17 	ldw	r2,-12(fp)
    5134:	10c00115 	stw	r3,4(r2)
    5138:	e0bffd17 	ldw	r2,-12(fp)
    513c:	1000020d 	sth	zero,8(r2)
    5140:	e0bffd17 	ldw	r2,-12(fp)
    5144:	d0a6c115 	stw	r2,-25852(gp)
    5148:	e0bff617 	ldw	r2,-40(fp)
    514c:	e0bff715 	stw	r2,-36(fp)
    5150:	e0bff717 	ldw	r2,-36(fp)
    5154:	1001703a 	wrctl	status,r2
    5158:	e0bfff17 	ldw	r2,-4(fp)
    515c:	10000005 	stb	zero,0(r2)
    5160:	e03ff515 	stw	zero,-44(fp)
    5164:	00003f06 	br	5264 <OSQDel+0x268>
    5168:	e0bff617 	ldw	r2,-40(fp)
    516c:	e0bff915 	stw	r2,-28(fp)
    5170:	e0bff917 	ldw	r2,-28(fp)
    5174:	1001703a 	wrctl	status,r2
    5178:	e0bfff17 	ldw	r2,-4(fp)
    517c:	00c01244 	movi	r3,73
    5180:	10c00005 	stb	r3,0(r2)
    5184:	e0bffd17 	ldw	r2,-12(fp)
    5188:	e0bff515 	stw	r2,-44(fp)
    518c:	00003506 	br	5264 <OSQDel+0x268>
    5190:	000f883a 	mov	r7,zero
    5194:	01800104 	movi	r6,4
    5198:	000b883a 	mov	r5,zero
    519c:	e13ffd17 	ldw	r4,-12(fp)
    51a0:	0001be80 	call	1be8 <OS_EventTaskRdy>
    51a4:	e0bffd17 	ldw	r2,-12(fp)
    51a8:	10800283 	ldbu	r2,10(r2)
    51ac:	10803fcc 	andi	r2,r2,255
    51b0:	103ff71e 	bne	r2,zero,5190 <OSQDel+0x194>
    51b4:	e0bffd17 	ldw	r2,-12(fp)
    51b8:	00c00fc4 	movi	r3,63
    51bc:	10c00385 	stb	r3,14(r2)
    51c0:	e0bffd17 	ldw	r2,-12(fp)
    51c4:	100003c5 	stb	zero,15(r2)
    51c8:	e0bffd17 	ldw	r2,-12(fp)
    51cc:	10800117 	ldw	r2,4(r2)
    51d0:	e0bff815 	stw	r2,-32(fp)
    51d4:	d0e6bf17 	ldw	r3,-25860(gp)
    51d8:	e0bff817 	ldw	r2,-32(fp)
    51dc:	10c00015 	stw	r3,0(r2)
    51e0:	e0bff817 	ldw	r2,-32(fp)
    51e4:	d0a6bf15 	stw	r2,-25860(gp)
    51e8:	e0bffd17 	ldw	r2,-12(fp)
    51ec:	10000005 	stb	zero,0(r2)
    51f0:	d0e6c117 	ldw	r3,-25852(gp)
    51f4:	e0bffd17 	ldw	r2,-12(fp)
    51f8:	10c00115 	stw	r3,4(r2)
    51fc:	e0bffd17 	ldw	r2,-12(fp)
    5200:	1000020d 	sth	zero,8(r2)
    5204:	e0bffd17 	ldw	r2,-12(fp)
    5208:	d0a6c115 	stw	r2,-25852(gp)
    520c:	e0bff617 	ldw	r2,-40(fp)
    5210:	e0bffa15 	stw	r2,-24(fp)
    5214:	e0bffa17 	ldw	r2,-24(fp)
    5218:	1001703a 	wrctl	status,r2
    521c:	e0bff403 	ldbu	r2,-48(fp)
    5220:	10800058 	cmpnei	r2,r2,1
    5224:	1000011e 	bne	r2,zero,522c <OSQDel+0x230>
    5228:	00026340 	call	2634 <OS_Sched>
    522c:	e0bfff17 	ldw	r2,-4(fp)
    5230:	10000005 	stb	zero,0(r2)
    5234:	e03ff515 	stw	zero,-44(fp)
    5238:	00000a06 	br	5264 <OSQDel+0x268>
    523c:	e0bff617 	ldw	r2,-40(fp)
    5240:	e0bffb15 	stw	r2,-20(fp)
    5244:	e0bffb17 	ldw	r2,-20(fp)
    5248:	1001703a 	wrctl	status,r2
    524c:	e0bfff17 	ldw	r2,-4(fp)
    5250:	00c001c4 	movi	r3,7
    5254:	10c00005 	stb	r3,0(r2)
    5258:	e0bffd17 	ldw	r2,-12(fp)
    525c:	e0bff515 	stw	r2,-44(fp)
    5260:	0001883a 	nop
    5264:	e0bff517 	ldw	r2,-44(fp)
    5268:	e037883a 	mov	sp,fp
    526c:	dfc00117 	ldw	ra,4(sp)
    5270:	df000017 	ldw	fp,0(sp)
    5274:	dec00204 	addi	sp,sp,8
    5278:	f800283a 	ret

0000527c <OSQFlush>:
    527c:	defffa04 	addi	sp,sp,-24
    5280:	df000515 	stw	fp,20(sp)
    5284:	df000504 	addi	fp,sp,20
    5288:	e13fff15 	stw	r4,-4(fp)
    528c:	e03ffb15 	stw	zero,-20(fp)
    5290:	e0bfff17 	ldw	r2,-4(fp)
    5294:	1000021e 	bne	r2,zero,52a0 <OSQFlush+0x24>
    5298:	00800104 	movi	r2,4
    529c:	00002106 	br	5324 <OSQFlush+0xa8>
    52a0:	e0bfff17 	ldw	r2,-4(fp)
    52a4:	10800003 	ldbu	r2,0(r2)
    52a8:	10803fcc 	andi	r2,r2,255
    52ac:	108000a0 	cmpeqi	r2,r2,2
    52b0:	1000021e 	bne	r2,zero,52bc <OSQFlush+0x40>
    52b4:	00800044 	movi	r2,1
    52b8:	00001a06 	br	5324 <OSQFlush+0xa8>
    52bc:	0005303a 	rdctl	r2,status
    52c0:	e0bffd15 	stw	r2,-12(fp)
    52c4:	e0fffd17 	ldw	r3,-12(fp)
    52c8:	00bfff84 	movi	r2,-2
    52cc:	1884703a 	and	r2,r3,r2
    52d0:	1001703a 	wrctl	status,r2
    52d4:	e0bffd17 	ldw	r2,-12(fp)
    52d8:	e0bffb15 	stw	r2,-20(fp)
    52dc:	e0bfff17 	ldw	r2,-4(fp)
    52e0:	10800117 	ldw	r2,4(r2)
    52e4:	e0bffc15 	stw	r2,-16(fp)
    52e8:	e0bffc17 	ldw	r2,-16(fp)
    52ec:	10c00117 	ldw	r3,4(r2)
    52f0:	e0bffc17 	ldw	r2,-16(fp)
    52f4:	10c00315 	stw	r3,12(r2)
    52f8:	e0bffc17 	ldw	r2,-16(fp)
    52fc:	10c00117 	ldw	r3,4(r2)
    5300:	e0bffc17 	ldw	r2,-16(fp)
    5304:	10c00415 	stw	r3,16(r2)
    5308:	e0bffc17 	ldw	r2,-16(fp)
    530c:	1000058d 	sth	zero,22(r2)
    5310:	e0bffb17 	ldw	r2,-20(fp)
    5314:	e0bffe15 	stw	r2,-8(fp)
    5318:	e0bffe17 	ldw	r2,-8(fp)
    531c:	1001703a 	wrctl	status,r2
    5320:	0005883a 	mov	r2,zero
    5324:	e037883a 	mov	sp,fp
    5328:	df000017 	ldw	fp,0(sp)
    532c:	dec00104 	addi	sp,sp,4
    5330:	f800283a 	ret

00005334 <OSQPend>:
    5334:	defff304 	addi	sp,sp,-52
    5338:	dfc00c15 	stw	ra,48(sp)
    533c:	df000b15 	stw	fp,44(sp)
    5340:	df000b04 	addi	fp,sp,44
    5344:	e13ffd15 	stw	r4,-12(fp)
    5348:	2805883a 	mov	r2,r5
    534c:	e1bfff15 	stw	r6,-4(fp)
    5350:	e0bffe0d 	sth	r2,-8(fp)
    5354:	e03ff615 	stw	zero,-40(fp)
    5358:	e0bfff17 	ldw	r2,-4(fp)
    535c:	1000021e 	bne	r2,zero,5368 <OSQPend+0x34>
    5360:	0005883a 	mov	r2,zero
    5364:	00009106 	br	55ac <OSQPend+0x278>
    5368:	e0bffd17 	ldw	r2,-12(fp)
    536c:	1000051e 	bne	r2,zero,5384 <OSQPend+0x50>
    5370:	e0bfff17 	ldw	r2,-4(fp)
    5374:	00c00104 	movi	r3,4
    5378:	10c00005 	stb	r3,0(r2)
    537c:	0005883a 	mov	r2,zero
    5380:	00008a06 	br	55ac <OSQPend+0x278>
    5384:	e0bffd17 	ldw	r2,-12(fp)
    5388:	10800003 	ldbu	r2,0(r2)
    538c:	10803fcc 	andi	r2,r2,255
    5390:	108000a0 	cmpeqi	r2,r2,2
    5394:	1000051e 	bne	r2,zero,53ac <OSQPend+0x78>
    5398:	e0bfff17 	ldw	r2,-4(fp)
    539c:	00c00044 	movi	r3,1
    53a0:	10c00005 	stb	r3,0(r2)
    53a4:	0005883a 	mov	r2,zero
    53a8:	00008006 	br	55ac <OSQPend+0x278>
    53ac:	d0a6c203 	ldbu	r2,-25848(gp)
    53b0:	10803fcc 	andi	r2,r2,255
    53b4:	10000526 	beq	r2,zero,53cc <OSQPend+0x98>
    53b8:	e0bfff17 	ldw	r2,-4(fp)
    53bc:	00c00084 	movi	r3,2
    53c0:	10c00005 	stb	r3,0(r2)
    53c4:	0005883a 	mov	r2,zero
    53c8:	00007806 	br	55ac <OSQPend+0x278>
    53cc:	d0a6b403 	ldbu	r2,-25904(gp)
    53d0:	10803fcc 	andi	r2,r2,255
    53d4:	10000526 	beq	r2,zero,53ec <OSQPend+0xb8>
    53d8:	e0bfff17 	ldw	r2,-4(fp)
    53dc:	00c00344 	movi	r3,13
    53e0:	10c00005 	stb	r3,0(r2)
    53e4:	0005883a 	mov	r2,zero
    53e8:	00007006 	br	55ac <OSQPend+0x278>
    53ec:	0005303a 	rdctl	r2,status
    53f0:	e0bffc15 	stw	r2,-16(fp)
    53f4:	e0fffc17 	ldw	r3,-16(fp)
    53f8:	00bfff84 	movi	r2,-2
    53fc:	1884703a 	and	r2,r3,r2
    5400:	1001703a 	wrctl	status,r2
    5404:	e0bffc17 	ldw	r2,-16(fp)
    5408:	e0bff615 	stw	r2,-40(fp)
    540c:	e0bffd17 	ldw	r2,-12(fp)
    5410:	10800117 	ldw	r2,4(r2)
    5414:	e0bff815 	stw	r2,-32(fp)
    5418:	e0bff817 	ldw	r2,-32(fp)
    541c:	1080058b 	ldhu	r2,22(r2)
    5420:	10bfffcc 	andi	r2,r2,65535
    5424:	10001e26 	beq	r2,zero,54a0 <OSQPend+0x16c>
    5428:	e0bff817 	ldw	r2,-32(fp)
    542c:	10800417 	ldw	r2,16(r2)
    5430:	11000104 	addi	r4,r2,4
    5434:	e0fff817 	ldw	r3,-32(fp)
    5438:	19000415 	stw	r4,16(r3)
    543c:	10800017 	ldw	r2,0(r2)
    5440:	e0bff515 	stw	r2,-44(fp)
    5444:	e0bff817 	ldw	r2,-32(fp)
    5448:	1080058b 	ldhu	r2,22(r2)
    544c:	10bfffc4 	addi	r2,r2,-1
    5450:	1007883a 	mov	r3,r2
    5454:	e0bff817 	ldw	r2,-32(fp)
    5458:	10c0058d 	sth	r3,22(r2)
    545c:	e0bff817 	ldw	r2,-32(fp)
    5460:	10c00417 	ldw	r3,16(r2)
    5464:	e0bff817 	ldw	r2,-32(fp)
    5468:	10800217 	ldw	r2,8(r2)
    546c:	1880041e 	bne	r3,r2,5480 <OSQPend+0x14c>
    5470:	e0bff817 	ldw	r2,-32(fp)
    5474:	10c00117 	ldw	r3,4(r2)
    5478:	e0bff817 	ldw	r2,-32(fp)
    547c:	10c00415 	stw	r3,16(r2)
    5480:	e0bff617 	ldw	r2,-40(fp)
    5484:	e0bff715 	stw	r2,-36(fp)
    5488:	e0bff717 	ldw	r2,-36(fp)
    548c:	1001703a 	wrctl	status,r2
    5490:	e0bfff17 	ldw	r2,-4(fp)
    5494:	10000005 	stb	zero,0(r2)
    5498:	e0bff517 	ldw	r2,-44(fp)
    549c:	00004306 	br	55ac <OSQPend+0x278>
    54a0:	d0a6c317 	ldw	r2,-25844(gp)
    54a4:	d0e6c317 	ldw	r3,-25844(gp)
    54a8:	18c00c03 	ldbu	r3,48(r3)
    54ac:	18c00114 	ori	r3,r3,4
    54b0:	10c00c05 	stb	r3,48(r2)
    54b4:	d0a6c317 	ldw	r2,-25844(gp)
    54b8:	10000c45 	stb	zero,49(r2)
    54bc:	d0a6c317 	ldw	r2,-25844(gp)
    54c0:	e0fffe0b 	ldhu	r3,-8(fp)
    54c4:	10c00b8d 	sth	r3,46(r2)
    54c8:	e13ffd17 	ldw	r4,-12(fp)
    54cc:	0001d800 	call	1d80 <OS_EventTaskWait>
    54d0:	e0bff617 	ldw	r2,-40(fp)
    54d4:	e0bffb15 	stw	r2,-20(fp)
    54d8:	e0bffb17 	ldw	r2,-20(fp)
    54dc:	1001703a 	wrctl	status,r2
    54e0:	00026340 	call	2634 <OS_Sched>
    54e4:	0005303a 	rdctl	r2,status
    54e8:	e0bff915 	stw	r2,-28(fp)
    54ec:	e0fff917 	ldw	r3,-28(fp)
    54f0:	00bfff84 	movi	r2,-2
    54f4:	1884703a 	and	r2,r3,r2
    54f8:	1001703a 	wrctl	status,r2
    54fc:	e0bff917 	ldw	r2,-28(fp)
    5500:	e0bff615 	stw	r2,-40(fp)
    5504:	d0a6c317 	ldw	r2,-25844(gp)
    5508:	10800c43 	ldbu	r2,49(r2)
    550c:	10803fcc 	andi	r2,r2,255
    5510:	10000326 	beq	r2,zero,5520 <OSQPend+0x1ec>
    5514:	108000a0 	cmpeqi	r2,r2,2
    5518:	1000071e 	bne	r2,zero,5538 <OSQPend+0x204>
    551c:	00000b06 	br	554c <OSQPend+0x218>
    5520:	d0a6c317 	ldw	r2,-25844(gp)
    5524:	10800917 	ldw	r2,36(r2)
    5528:	e0bff515 	stw	r2,-44(fp)
    552c:	e0bfff17 	ldw	r2,-4(fp)
    5530:	10000005 	stb	zero,0(r2)
    5534:	00000e06 	br	5570 <OSQPend+0x23c>
    5538:	e03ff515 	stw	zero,-44(fp)
    553c:	e0bfff17 	ldw	r2,-4(fp)
    5540:	00c00384 	movi	r3,14
    5544:	10c00005 	stb	r3,0(r2)
    5548:	00000906 	br	5570 <OSQPend+0x23c>
    554c:	d0a6c317 	ldw	r2,-25844(gp)
    5550:	e17ffd17 	ldw	r5,-12(fp)
    5554:	1009883a 	mov	r4,r2
    5558:	0001fe00 	call	1fe0 <OS_EventTaskRemove>
    555c:	e03ff515 	stw	zero,-44(fp)
    5560:	e0bfff17 	ldw	r2,-4(fp)
    5564:	00c00284 	movi	r3,10
    5568:	10c00005 	stb	r3,0(r2)
    556c:	0001883a 	nop
    5570:	d0a6c317 	ldw	r2,-25844(gp)
    5574:	10000c05 	stb	zero,48(r2)
    5578:	d0a6c317 	ldw	r2,-25844(gp)
    557c:	10000c45 	stb	zero,49(r2)
    5580:	d0a6c317 	ldw	r2,-25844(gp)
    5584:	10000715 	stw	zero,28(r2)
    5588:	d0a6c317 	ldw	r2,-25844(gp)
    558c:	10000815 	stw	zero,32(r2)
    5590:	d0a6c317 	ldw	r2,-25844(gp)
    5594:	10000915 	stw	zero,36(r2)
    5598:	e0bff617 	ldw	r2,-40(fp)
    559c:	e0bffa15 	stw	r2,-24(fp)
    55a0:	e0bffa17 	ldw	r2,-24(fp)
    55a4:	1001703a 	wrctl	status,r2
    55a8:	e0bff517 	ldw	r2,-44(fp)
    55ac:	e037883a 	mov	sp,fp
    55b0:	dfc00117 	ldw	ra,4(sp)
    55b4:	df000017 	ldw	fp,0(sp)
    55b8:	dec00204 	addi	sp,sp,8
    55bc:	f800283a 	ret

000055c0 <OSQPendAbort>:
    55c0:	defff604 	addi	sp,sp,-40
    55c4:	dfc00915 	stw	ra,36(sp)
    55c8:	df000815 	stw	fp,32(sp)
    55cc:	df000804 	addi	fp,sp,32
    55d0:	e13ffd15 	stw	r4,-12(fp)
    55d4:	2805883a 	mov	r2,r5
    55d8:	e1bfff15 	stw	r6,-4(fp)
    55dc:	e0bffe05 	stb	r2,-8(fp)
    55e0:	e03ff915 	stw	zero,-28(fp)
    55e4:	e0bfff17 	ldw	r2,-4(fp)
    55e8:	1000021e 	bne	r2,zero,55f4 <OSQPendAbort+0x34>
    55ec:	0005883a 	mov	r2,zero
    55f0:	00004906 	br	5718 <OSQPendAbort+0x158>
    55f4:	e0bffd17 	ldw	r2,-12(fp)
    55f8:	1000051e 	bne	r2,zero,5610 <OSQPendAbort+0x50>
    55fc:	e0bfff17 	ldw	r2,-4(fp)
    5600:	00c00104 	movi	r3,4
    5604:	10c00005 	stb	r3,0(r2)
    5608:	0005883a 	mov	r2,zero
    560c:	00004206 	br	5718 <OSQPendAbort+0x158>
    5610:	e0bffd17 	ldw	r2,-12(fp)
    5614:	10800003 	ldbu	r2,0(r2)
    5618:	10803fcc 	andi	r2,r2,255
    561c:	108000a0 	cmpeqi	r2,r2,2
    5620:	1000051e 	bne	r2,zero,5638 <OSQPendAbort+0x78>
    5624:	e0bfff17 	ldw	r2,-4(fp)
    5628:	00c00044 	movi	r3,1
    562c:	10c00005 	stb	r3,0(r2)
    5630:	0005883a 	mov	r2,zero
    5634:	00003806 	br	5718 <OSQPendAbort+0x158>
    5638:	0005303a 	rdctl	r2,status
    563c:	e0bffc15 	stw	r2,-16(fp)
    5640:	e0fffc17 	ldw	r3,-16(fp)
    5644:	00bfff84 	movi	r2,-2
    5648:	1884703a 	and	r2,r3,r2
    564c:	1001703a 	wrctl	status,r2
    5650:	e0bffc17 	ldw	r2,-16(fp)
    5654:	e0bff915 	stw	r2,-28(fp)
    5658:	e0bffd17 	ldw	r2,-12(fp)
    565c:	10800283 	ldbu	r2,10(r2)
    5660:	10803fcc 	andi	r2,r2,255
    5664:	10002526 	beq	r2,zero,56fc <OSQPendAbort+0x13c>
    5668:	e03ff805 	stb	zero,-32(fp)
    566c:	e0bffe03 	ldbu	r2,-8(fp)
    5670:	10800060 	cmpeqi	r2,r2,1
    5674:	10000e26 	beq	r2,zero,56b0 <OSQPendAbort+0xf0>
    5678:	00000806 	br	569c <OSQPendAbort+0xdc>
    567c:	01c00084 	movi	r7,2
    5680:	01800104 	movi	r6,4
    5684:	000b883a 	mov	r5,zero
    5688:	e13ffd17 	ldw	r4,-12(fp)
    568c:	0001be80 	call	1be8 <OS_EventTaskRdy>
    5690:	e0bff803 	ldbu	r2,-32(fp)
    5694:	10800044 	addi	r2,r2,1
    5698:	e0bff805 	stb	r2,-32(fp)
    569c:	e0bffd17 	ldw	r2,-12(fp)
    56a0:	10800283 	ldbu	r2,10(r2)
    56a4:	10803fcc 	andi	r2,r2,255
    56a8:	103ff41e 	bne	r2,zero,567c <OSQPendAbort+0xbc>
    56ac:	00000906 	br	56d4 <OSQPendAbort+0x114>
    56b0:	01c00084 	movi	r7,2
    56b4:	01800104 	movi	r6,4
    56b8:	000b883a 	mov	r5,zero
    56bc:	e13ffd17 	ldw	r4,-12(fp)
    56c0:	0001be80 	call	1be8 <OS_EventTaskRdy>
    56c4:	e0bff803 	ldbu	r2,-32(fp)
    56c8:	10800044 	addi	r2,r2,1
    56cc:	e0bff805 	stb	r2,-32(fp)
    56d0:	0001883a 	nop
    56d4:	e0bff917 	ldw	r2,-28(fp)
    56d8:	e0bffa15 	stw	r2,-24(fp)
    56dc:	e0bffa17 	ldw	r2,-24(fp)
    56e0:	1001703a 	wrctl	status,r2
    56e4:	00026340 	call	2634 <OS_Sched>
    56e8:	e0bfff17 	ldw	r2,-4(fp)
    56ec:	00c00384 	movi	r3,14
    56f0:	10c00005 	stb	r3,0(r2)
    56f4:	e0bff803 	ldbu	r2,-32(fp)
    56f8:	00000706 	br	5718 <OSQPendAbort+0x158>
    56fc:	e0bff917 	ldw	r2,-28(fp)
    5700:	e0bffb15 	stw	r2,-20(fp)
    5704:	e0bffb17 	ldw	r2,-20(fp)
    5708:	1001703a 	wrctl	status,r2
    570c:	e0bfff17 	ldw	r2,-4(fp)
    5710:	10000005 	stb	zero,0(r2)
    5714:	0005883a 	mov	r2,zero
    5718:	e037883a 	mov	sp,fp
    571c:	dfc00117 	ldw	ra,4(sp)
    5720:	df000017 	ldw	fp,0(sp)
    5724:	dec00204 	addi	sp,sp,8
    5728:	f800283a 	ret

0000572c <OSQPost>:
    572c:	defff604 	addi	sp,sp,-40
    5730:	dfc00915 	stw	ra,36(sp)
    5734:	df000815 	stw	fp,32(sp)
    5738:	df000804 	addi	fp,sp,32
    573c:	e13ffe15 	stw	r4,-8(fp)
    5740:	e17fff15 	stw	r5,-4(fp)
    5744:	e03ff815 	stw	zero,-32(fp)
    5748:	e0bffe17 	ldw	r2,-8(fp)
    574c:	1000021e 	bne	r2,zero,5758 <OSQPost+0x2c>
    5750:	00800104 	movi	r2,4
    5754:	00004a06 	br	5880 <OSQPost+0x154>
    5758:	e0bffe17 	ldw	r2,-8(fp)
    575c:	10800003 	ldbu	r2,0(r2)
    5760:	10803fcc 	andi	r2,r2,255
    5764:	108000a0 	cmpeqi	r2,r2,2
    5768:	1000021e 	bne	r2,zero,5774 <OSQPost+0x48>
    576c:	00800044 	movi	r2,1
    5770:	00004306 	br	5880 <OSQPost+0x154>
    5774:	0005303a 	rdctl	r2,status
    5778:	e0bffd15 	stw	r2,-12(fp)
    577c:	e0fffd17 	ldw	r3,-12(fp)
    5780:	00bfff84 	movi	r2,-2
    5784:	1884703a 	and	r2,r3,r2
    5788:	1001703a 	wrctl	status,r2
    578c:	e0bffd17 	ldw	r2,-12(fp)
    5790:	e0bff815 	stw	r2,-32(fp)
    5794:	e0bffe17 	ldw	r2,-8(fp)
    5798:	10800283 	ldbu	r2,10(r2)
    579c:	10803fcc 	andi	r2,r2,255
    57a0:	10000c26 	beq	r2,zero,57d4 <OSQPost+0xa8>
    57a4:	000f883a 	mov	r7,zero
    57a8:	01800104 	movi	r6,4
    57ac:	e17fff17 	ldw	r5,-4(fp)
    57b0:	e13ffe17 	ldw	r4,-8(fp)
    57b4:	0001be80 	call	1be8 <OS_EventTaskRdy>
    57b8:	e0bff817 	ldw	r2,-32(fp)
    57bc:	e0bff915 	stw	r2,-28(fp)
    57c0:	e0bff917 	ldw	r2,-28(fp)
    57c4:	1001703a 	wrctl	status,r2
    57c8:	00026340 	call	2634 <OS_Sched>
    57cc:	0005883a 	mov	r2,zero
    57d0:	00002b06 	br	5880 <OSQPost+0x154>
    57d4:	e0bffe17 	ldw	r2,-8(fp)
    57d8:	10800117 	ldw	r2,4(r2)
    57dc:	e0bffb15 	stw	r2,-20(fp)
    57e0:	e0bffb17 	ldw	r2,-20(fp)
    57e4:	10c0058b 	ldhu	r3,22(r2)
    57e8:	e0bffb17 	ldw	r2,-20(fp)
    57ec:	1080050b 	ldhu	r2,20(r2)
    57f0:	18ffffcc 	andi	r3,r3,65535
    57f4:	10bfffcc 	andi	r2,r2,65535
    57f8:	18800636 	bltu	r3,r2,5814 <OSQPost+0xe8>
    57fc:	e0bff817 	ldw	r2,-32(fp)
    5800:	e0bffa15 	stw	r2,-24(fp)
    5804:	e0bffa17 	ldw	r2,-24(fp)
    5808:	1001703a 	wrctl	status,r2
    580c:	00800784 	movi	r2,30
    5810:	00001b06 	br	5880 <OSQPost+0x154>
    5814:	e0bffb17 	ldw	r2,-20(fp)
    5818:	10800317 	ldw	r2,12(r2)
    581c:	11000104 	addi	r4,r2,4
    5820:	e0fffb17 	ldw	r3,-20(fp)
    5824:	19000315 	stw	r4,12(r3)
    5828:	e0ffff17 	ldw	r3,-4(fp)
    582c:	10c00015 	stw	r3,0(r2)
    5830:	e0bffb17 	ldw	r2,-20(fp)
    5834:	1080058b 	ldhu	r2,22(r2)
    5838:	10800044 	addi	r2,r2,1
    583c:	1007883a 	mov	r3,r2
    5840:	e0bffb17 	ldw	r2,-20(fp)
    5844:	10c0058d 	sth	r3,22(r2)
    5848:	e0bffb17 	ldw	r2,-20(fp)
    584c:	10c00317 	ldw	r3,12(r2)
    5850:	e0bffb17 	ldw	r2,-20(fp)
    5854:	10800217 	ldw	r2,8(r2)
    5858:	1880041e 	bne	r3,r2,586c <OSQPost+0x140>
    585c:	e0bffb17 	ldw	r2,-20(fp)
    5860:	10c00117 	ldw	r3,4(r2)
    5864:	e0bffb17 	ldw	r2,-20(fp)
    5868:	10c00315 	stw	r3,12(r2)
    586c:	e0bff817 	ldw	r2,-32(fp)
    5870:	e0bffc15 	stw	r2,-16(fp)
    5874:	e0bffc17 	ldw	r2,-16(fp)
    5878:	1001703a 	wrctl	status,r2
    587c:	0005883a 	mov	r2,zero
    5880:	e037883a 	mov	sp,fp
    5884:	dfc00117 	ldw	ra,4(sp)
    5888:	df000017 	ldw	fp,0(sp)
    588c:	dec00204 	addi	sp,sp,8
    5890:	f800283a 	ret

00005894 <OSQPostFront>:
    5894:	defff604 	addi	sp,sp,-40
    5898:	dfc00915 	stw	ra,36(sp)
    589c:	df000815 	stw	fp,32(sp)
    58a0:	df000804 	addi	fp,sp,32
    58a4:	e13ffe15 	stw	r4,-8(fp)
    58a8:	e17fff15 	stw	r5,-4(fp)
    58ac:	e03ff815 	stw	zero,-32(fp)
    58b0:	e0bffe17 	ldw	r2,-8(fp)
    58b4:	1000021e 	bne	r2,zero,58c0 <OSQPostFront+0x2c>
    58b8:	00800104 	movi	r2,4
    58bc:	00004c06 	br	59f0 <OSQPostFront+0x15c>
    58c0:	e0bffe17 	ldw	r2,-8(fp)
    58c4:	10800003 	ldbu	r2,0(r2)
    58c8:	10803fcc 	andi	r2,r2,255
    58cc:	108000a0 	cmpeqi	r2,r2,2
    58d0:	1000021e 	bne	r2,zero,58dc <OSQPostFront+0x48>
    58d4:	00800044 	movi	r2,1
    58d8:	00004506 	br	59f0 <OSQPostFront+0x15c>
    58dc:	0005303a 	rdctl	r2,status
    58e0:	e0bffd15 	stw	r2,-12(fp)
    58e4:	e0fffd17 	ldw	r3,-12(fp)
    58e8:	00bfff84 	movi	r2,-2
    58ec:	1884703a 	and	r2,r3,r2
    58f0:	1001703a 	wrctl	status,r2
    58f4:	e0bffd17 	ldw	r2,-12(fp)
    58f8:	e0bff815 	stw	r2,-32(fp)
    58fc:	e0bffe17 	ldw	r2,-8(fp)
    5900:	10800283 	ldbu	r2,10(r2)
    5904:	10803fcc 	andi	r2,r2,255
    5908:	10000c26 	beq	r2,zero,593c <OSQPostFront+0xa8>
    590c:	000f883a 	mov	r7,zero
    5910:	01800104 	movi	r6,4
    5914:	e17fff17 	ldw	r5,-4(fp)
    5918:	e13ffe17 	ldw	r4,-8(fp)
    591c:	0001be80 	call	1be8 <OS_EventTaskRdy>
    5920:	e0bff817 	ldw	r2,-32(fp)
    5924:	e0bff915 	stw	r2,-28(fp)
    5928:	e0bff917 	ldw	r2,-28(fp)
    592c:	1001703a 	wrctl	status,r2
    5930:	00026340 	call	2634 <OS_Sched>
    5934:	0005883a 	mov	r2,zero
    5938:	00002d06 	br	59f0 <OSQPostFront+0x15c>
    593c:	e0bffe17 	ldw	r2,-8(fp)
    5940:	10800117 	ldw	r2,4(r2)
    5944:	e0bffb15 	stw	r2,-20(fp)
    5948:	e0bffb17 	ldw	r2,-20(fp)
    594c:	10c0058b 	ldhu	r3,22(r2)
    5950:	e0bffb17 	ldw	r2,-20(fp)
    5954:	1080050b 	ldhu	r2,20(r2)
    5958:	18ffffcc 	andi	r3,r3,65535
    595c:	10bfffcc 	andi	r2,r2,65535
    5960:	18800636 	bltu	r3,r2,597c <OSQPostFront+0xe8>
    5964:	e0bff817 	ldw	r2,-32(fp)
    5968:	e0bffa15 	stw	r2,-24(fp)
    596c:	e0bffa17 	ldw	r2,-24(fp)
    5970:	1001703a 	wrctl	status,r2
    5974:	00800784 	movi	r2,30
    5978:	00001d06 	br	59f0 <OSQPostFront+0x15c>
    597c:	e0bffb17 	ldw	r2,-20(fp)
    5980:	10c00417 	ldw	r3,16(r2)
    5984:	e0bffb17 	ldw	r2,-20(fp)
    5988:	10800117 	ldw	r2,4(r2)
    598c:	1880041e 	bne	r3,r2,59a0 <OSQPostFront+0x10c>
    5990:	e0bffb17 	ldw	r2,-20(fp)
    5994:	10c00217 	ldw	r3,8(r2)
    5998:	e0bffb17 	ldw	r2,-20(fp)
    599c:	10c00415 	stw	r3,16(r2)
    59a0:	e0bffb17 	ldw	r2,-20(fp)
    59a4:	10800417 	ldw	r2,16(r2)
    59a8:	10ffff04 	addi	r3,r2,-4
    59ac:	e0bffb17 	ldw	r2,-20(fp)
    59b0:	10c00415 	stw	r3,16(r2)
    59b4:	e0bffb17 	ldw	r2,-20(fp)
    59b8:	10800417 	ldw	r2,16(r2)
    59bc:	e0ffff17 	ldw	r3,-4(fp)
    59c0:	10c00015 	stw	r3,0(r2)
    59c4:	e0bffb17 	ldw	r2,-20(fp)
    59c8:	1080058b 	ldhu	r2,22(r2)
    59cc:	10800044 	addi	r2,r2,1
    59d0:	1007883a 	mov	r3,r2
    59d4:	e0bffb17 	ldw	r2,-20(fp)
    59d8:	10c0058d 	sth	r3,22(r2)
    59dc:	e0bff817 	ldw	r2,-32(fp)
    59e0:	e0bffc15 	stw	r2,-16(fp)
    59e4:	e0bffc17 	ldw	r2,-16(fp)
    59e8:	1001703a 	wrctl	status,r2
    59ec:	0005883a 	mov	r2,zero
    59f0:	e037883a 	mov	sp,fp
    59f4:	dfc00117 	ldw	ra,4(sp)
    59f8:	df000017 	ldw	fp,0(sp)
    59fc:	dec00204 	addi	sp,sp,8
    5a00:	f800283a 	ret

00005a04 <OSQPostOpt>:
    5a04:	defff504 	addi	sp,sp,-44
    5a08:	dfc00a15 	stw	ra,40(sp)
    5a0c:	df000915 	stw	fp,36(sp)
    5a10:	df000904 	addi	fp,sp,36
    5a14:	e13ffd15 	stw	r4,-12(fp)
    5a18:	e17ffe15 	stw	r5,-8(fp)
    5a1c:	3005883a 	mov	r2,r6
    5a20:	e0bfff05 	stb	r2,-4(fp)
    5a24:	e03ff715 	stw	zero,-36(fp)
    5a28:	e0bffd17 	ldw	r2,-12(fp)
    5a2c:	1000021e 	bne	r2,zero,5a38 <OSQPostOpt+0x34>
    5a30:	00800104 	movi	r2,4
    5a34:	00007106 	br	5bfc <OSQPostOpt+0x1f8>
    5a38:	e0bffd17 	ldw	r2,-12(fp)
    5a3c:	10800003 	ldbu	r2,0(r2)
    5a40:	10803fcc 	andi	r2,r2,255
    5a44:	108000a0 	cmpeqi	r2,r2,2
    5a48:	1000021e 	bne	r2,zero,5a54 <OSQPostOpt+0x50>
    5a4c:	00800044 	movi	r2,1
    5a50:	00006a06 	br	5bfc <OSQPostOpt+0x1f8>
    5a54:	0005303a 	rdctl	r2,status
    5a58:	e0bffc15 	stw	r2,-16(fp)
    5a5c:	e0fffc17 	ldw	r3,-16(fp)
    5a60:	00bfff84 	movi	r2,-2
    5a64:	1884703a 	and	r2,r3,r2
    5a68:	1001703a 	wrctl	status,r2
    5a6c:	e0bffc17 	ldw	r2,-16(fp)
    5a70:	e0bff715 	stw	r2,-36(fp)
    5a74:	e0bffd17 	ldw	r2,-12(fp)
    5a78:	10800283 	ldbu	r2,10(r2)
    5a7c:	10803fcc 	andi	r2,r2,255
    5a80:	10001d26 	beq	r2,zero,5af8 <OSQPostOpt+0xf4>
    5a84:	e0bfff03 	ldbu	r2,-4(fp)
    5a88:	1080004c 	andi	r2,r2,1
    5a8c:	10000b26 	beq	r2,zero,5abc <OSQPostOpt+0xb8>
    5a90:	00000506 	br	5aa8 <OSQPostOpt+0xa4>
    5a94:	000f883a 	mov	r7,zero
    5a98:	01800104 	movi	r6,4
    5a9c:	e17ffe17 	ldw	r5,-8(fp)
    5aa0:	e13ffd17 	ldw	r4,-12(fp)
    5aa4:	0001be80 	call	1be8 <OS_EventTaskRdy>
    5aa8:	e0bffd17 	ldw	r2,-12(fp)
    5aac:	10800283 	ldbu	r2,10(r2)
    5ab0:	10803fcc 	andi	r2,r2,255
    5ab4:	103ff71e 	bne	r2,zero,5a94 <OSQPostOpt+0x90>
    5ab8:	00000506 	br	5ad0 <OSQPostOpt+0xcc>
    5abc:	000f883a 	mov	r7,zero
    5ac0:	01800104 	movi	r6,4
    5ac4:	e17ffe17 	ldw	r5,-8(fp)
    5ac8:	e13ffd17 	ldw	r4,-12(fp)
    5acc:	0001be80 	call	1be8 <OS_EventTaskRdy>
    5ad0:	e0bff717 	ldw	r2,-36(fp)
    5ad4:	e0bff815 	stw	r2,-32(fp)
    5ad8:	e0bff817 	ldw	r2,-32(fp)
    5adc:	1001703a 	wrctl	status,r2
    5ae0:	e0bfff03 	ldbu	r2,-4(fp)
    5ae4:	1080010c 	andi	r2,r2,4
    5ae8:	1000011e 	bne	r2,zero,5af0 <OSQPostOpt+0xec>
    5aec:	00026340 	call	2634 <OS_Sched>
    5af0:	0005883a 	mov	r2,zero
    5af4:	00004106 	br	5bfc <OSQPostOpt+0x1f8>
    5af8:	e0bffd17 	ldw	r2,-12(fp)
    5afc:	10800117 	ldw	r2,4(r2)
    5b00:	e0bffa15 	stw	r2,-24(fp)
    5b04:	e0bffa17 	ldw	r2,-24(fp)
    5b08:	10c0058b 	ldhu	r3,22(r2)
    5b0c:	e0bffa17 	ldw	r2,-24(fp)
    5b10:	1080050b 	ldhu	r2,20(r2)
    5b14:	18ffffcc 	andi	r3,r3,65535
    5b18:	10bfffcc 	andi	r2,r2,65535
    5b1c:	18800636 	bltu	r3,r2,5b38 <OSQPostOpt+0x134>
    5b20:	e0bff717 	ldw	r2,-36(fp)
    5b24:	e0bff915 	stw	r2,-28(fp)
    5b28:	e0bff917 	ldw	r2,-28(fp)
    5b2c:	1001703a 	wrctl	status,r2
    5b30:	00800784 	movi	r2,30
    5b34:	00003106 	br	5bfc <OSQPostOpt+0x1f8>
    5b38:	e0bfff03 	ldbu	r2,-4(fp)
    5b3c:	1080008c 	andi	r2,r2,2
    5b40:	10001326 	beq	r2,zero,5b90 <OSQPostOpt+0x18c>
    5b44:	e0bffa17 	ldw	r2,-24(fp)
    5b48:	10c00417 	ldw	r3,16(r2)
    5b4c:	e0bffa17 	ldw	r2,-24(fp)
    5b50:	10800117 	ldw	r2,4(r2)
    5b54:	1880041e 	bne	r3,r2,5b68 <OSQPostOpt+0x164>
    5b58:	e0bffa17 	ldw	r2,-24(fp)
    5b5c:	10c00217 	ldw	r3,8(r2)
    5b60:	e0bffa17 	ldw	r2,-24(fp)
    5b64:	10c00415 	stw	r3,16(r2)
    5b68:	e0bffa17 	ldw	r2,-24(fp)
    5b6c:	10800417 	ldw	r2,16(r2)
    5b70:	10ffff04 	addi	r3,r2,-4
    5b74:	e0bffa17 	ldw	r2,-24(fp)
    5b78:	10c00415 	stw	r3,16(r2)
    5b7c:	e0bffa17 	ldw	r2,-24(fp)
    5b80:	10800417 	ldw	r2,16(r2)
    5b84:	e0fffe17 	ldw	r3,-8(fp)
    5b88:	10c00015 	stw	r3,0(r2)
    5b8c:	00001006 	br	5bd0 <OSQPostOpt+0x1cc>
    5b90:	e0bffa17 	ldw	r2,-24(fp)
    5b94:	10800317 	ldw	r2,12(r2)
    5b98:	11000104 	addi	r4,r2,4
    5b9c:	e0fffa17 	ldw	r3,-24(fp)
    5ba0:	19000315 	stw	r4,12(r3)
    5ba4:	e0fffe17 	ldw	r3,-8(fp)
    5ba8:	10c00015 	stw	r3,0(r2)
    5bac:	e0bffa17 	ldw	r2,-24(fp)
    5bb0:	10c00317 	ldw	r3,12(r2)
    5bb4:	e0bffa17 	ldw	r2,-24(fp)
    5bb8:	10800217 	ldw	r2,8(r2)
    5bbc:	1880041e 	bne	r3,r2,5bd0 <OSQPostOpt+0x1cc>
    5bc0:	e0bffa17 	ldw	r2,-24(fp)
    5bc4:	10c00117 	ldw	r3,4(r2)
    5bc8:	e0bffa17 	ldw	r2,-24(fp)
    5bcc:	10c00315 	stw	r3,12(r2)
    5bd0:	e0bffa17 	ldw	r2,-24(fp)
    5bd4:	1080058b 	ldhu	r2,22(r2)
    5bd8:	10800044 	addi	r2,r2,1
    5bdc:	1007883a 	mov	r3,r2
    5be0:	e0bffa17 	ldw	r2,-24(fp)
    5be4:	10c0058d 	sth	r3,22(r2)
    5be8:	e0bff717 	ldw	r2,-36(fp)
    5bec:	e0bffb15 	stw	r2,-20(fp)
    5bf0:	e0bffb17 	ldw	r2,-20(fp)
    5bf4:	1001703a 	wrctl	status,r2
    5bf8:	0005883a 	mov	r2,zero
    5bfc:	e037883a 	mov	sp,fp
    5c00:	dfc00117 	ldw	ra,4(sp)
    5c04:	df000017 	ldw	fp,0(sp)
    5c08:	dec00204 	addi	sp,sp,8
    5c0c:	f800283a 	ret

00005c10 <OSQQuery>:
    5c10:	defff604 	addi	sp,sp,-40
    5c14:	df000915 	stw	fp,36(sp)
    5c18:	df000904 	addi	fp,sp,36
    5c1c:	e13ffe15 	stw	r4,-8(fp)
    5c20:	e17fff15 	stw	r5,-4(fp)
    5c24:	e03ffa15 	stw	zero,-24(fp)
    5c28:	e0bffe17 	ldw	r2,-8(fp)
    5c2c:	1000021e 	bne	r2,zero,5c38 <OSQQuery+0x28>
    5c30:	00800104 	movi	r2,4
    5c34:	00004906 	br	5d5c <OSQQuery+0x14c>
    5c38:	e0bfff17 	ldw	r2,-4(fp)
    5c3c:	1000021e 	bne	r2,zero,5c48 <OSQQuery+0x38>
    5c40:	00800244 	movi	r2,9
    5c44:	00004506 	br	5d5c <OSQQuery+0x14c>
    5c48:	e0bffe17 	ldw	r2,-8(fp)
    5c4c:	10800003 	ldbu	r2,0(r2)
    5c50:	10803fcc 	andi	r2,r2,255
    5c54:	108000a0 	cmpeqi	r2,r2,2
    5c58:	1000021e 	bne	r2,zero,5c64 <OSQQuery+0x54>
    5c5c:	00800044 	movi	r2,1
    5c60:	00003e06 	br	5d5c <OSQQuery+0x14c>
    5c64:	0005303a 	rdctl	r2,status
    5c68:	e0bffd15 	stw	r2,-12(fp)
    5c6c:	e0fffd17 	ldw	r3,-12(fp)
    5c70:	00bfff84 	movi	r2,-2
    5c74:	1884703a 	and	r2,r3,r2
    5c78:	1001703a 	wrctl	status,r2
    5c7c:	e0bffd17 	ldw	r2,-12(fp)
    5c80:	e0bffa15 	stw	r2,-24(fp)
    5c84:	e0bffe17 	ldw	r2,-8(fp)
    5c88:	10c00283 	ldbu	r3,10(r2)
    5c8c:	e0bfff17 	ldw	r2,-4(fp)
    5c90:	10c002c5 	stb	r3,11(r2)
    5c94:	e0bffe17 	ldw	r2,-8(fp)
    5c98:	108002c4 	addi	r2,r2,11
    5c9c:	e0bff815 	stw	r2,-32(fp)
    5ca0:	e0bfff17 	ldw	r2,-4(fp)
    5ca4:	10800204 	addi	r2,r2,8
    5ca8:	e0bff915 	stw	r2,-28(fp)
    5cac:	e03ff705 	stb	zero,-36(fp)
    5cb0:	00000b06 	br	5ce0 <OSQQuery+0xd0>
    5cb4:	e0bff917 	ldw	r2,-28(fp)
    5cb8:	10c00044 	addi	r3,r2,1
    5cbc:	e0fff915 	stw	r3,-28(fp)
    5cc0:	e0fff817 	ldw	r3,-32(fp)
    5cc4:	19000044 	addi	r4,r3,1
    5cc8:	e13ff815 	stw	r4,-32(fp)
    5ccc:	18c00003 	ldbu	r3,0(r3)
    5cd0:	10c00005 	stb	r3,0(r2)
    5cd4:	e0bff703 	ldbu	r2,-36(fp)
    5cd8:	10800044 	addi	r2,r2,1
    5cdc:	e0bff705 	stb	r2,-36(fp)
    5ce0:	e0bff703 	ldbu	r2,-36(fp)
    5ce4:	108000f0 	cmpltui	r2,r2,3
    5ce8:	103ff21e 	bne	r2,zero,5cb4 <OSQQuery+0xa4>
    5cec:	e0bffe17 	ldw	r2,-8(fp)
    5cf0:	10800117 	ldw	r2,4(r2)
    5cf4:	e0bffc15 	stw	r2,-16(fp)
    5cf8:	e0bffc17 	ldw	r2,-16(fp)
    5cfc:	1080058b 	ldhu	r2,22(r2)
    5d00:	10bfffcc 	andi	r2,r2,65535
    5d04:	10000626 	beq	r2,zero,5d20 <OSQQuery+0x110>
    5d08:	e0bffc17 	ldw	r2,-16(fp)
    5d0c:	10800417 	ldw	r2,16(r2)
    5d10:	10c00017 	ldw	r3,0(r2)
    5d14:	e0bfff17 	ldw	r2,-4(fp)
    5d18:	10c00015 	stw	r3,0(r2)
    5d1c:	00000206 	br	5d28 <OSQQuery+0x118>
    5d20:	e0bfff17 	ldw	r2,-4(fp)
    5d24:	10000015 	stw	zero,0(r2)
    5d28:	e0bffc17 	ldw	r2,-16(fp)
    5d2c:	10c0058b 	ldhu	r3,22(r2)
    5d30:	e0bfff17 	ldw	r2,-4(fp)
    5d34:	10c0010d 	sth	r3,4(r2)
    5d38:	e0bffc17 	ldw	r2,-16(fp)
    5d3c:	10c0050b 	ldhu	r3,20(r2)
    5d40:	e0bfff17 	ldw	r2,-4(fp)
    5d44:	10c0018d 	sth	r3,6(r2)
    5d48:	e0bffa17 	ldw	r2,-24(fp)
    5d4c:	e0bffb15 	stw	r2,-20(fp)
    5d50:	e0bffb17 	ldw	r2,-20(fp)
    5d54:	1001703a 	wrctl	status,r2
    5d58:	0005883a 	mov	r2,zero
    5d5c:	e037883a 	mov	sp,fp
    5d60:	df000017 	ldw	fp,0(sp)
    5d64:	dec00104 	addi	sp,sp,4
    5d68:	f800283a 	ret

00005d6c <OS_QInit>:
    5d6c:	defffb04 	addi	sp,sp,-20
    5d70:	dfc00415 	stw	ra,16(sp)
    5d74:	df000315 	stw	fp,12(sp)
    5d78:	df000304 	addi	fp,sp,12
    5d7c:	01407804 	movi	r5,480
    5d80:	01000074 	movhi	r4,1
    5d84:	2115da04 	addi	r4,r4,22376
    5d88:	00025780 	call	2578 <OS_MemClr>
    5d8c:	00800074 	movhi	r2,1
    5d90:	1095da04 	addi	r2,r2,22376
    5d94:	e0bffe15 	stw	r2,-8(fp)
    5d98:	00800074 	movhi	r2,1
    5d9c:	1095e004 	addi	r2,r2,22400
    5da0:	e0bfff15 	stw	r2,-4(fp)
    5da4:	e03ffd0d 	sth	zero,-12(fp)
    5da8:	00000c06 	br	5ddc <OS_QInit+0x70>
    5dac:	e0bffe17 	ldw	r2,-8(fp)
    5db0:	e0ffff17 	ldw	r3,-4(fp)
    5db4:	10c00015 	stw	r3,0(r2)
    5db8:	e0bffe17 	ldw	r2,-8(fp)
    5dbc:	10800604 	addi	r2,r2,24
    5dc0:	e0bffe15 	stw	r2,-8(fp)
    5dc4:	e0bfff17 	ldw	r2,-4(fp)
    5dc8:	10800604 	addi	r2,r2,24
    5dcc:	e0bfff15 	stw	r2,-4(fp)
    5dd0:	e0bffd0b 	ldhu	r2,-12(fp)
    5dd4:	10800044 	addi	r2,r2,1
    5dd8:	e0bffd0d 	sth	r2,-12(fp)
    5ddc:	e0bffd0b 	ldhu	r2,-12(fp)
    5de0:	108004f0 	cmpltui	r2,r2,19
    5de4:	103ff11e 	bne	r2,zero,5dac <OS_QInit+0x40>
    5de8:	e0bffe17 	ldw	r2,-8(fp)
    5dec:	10000015 	stw	zero,0(r2)
    5df0:	00800074 	movhi	r2,1
    5df4:	1095da04 	addi	r2,r2,22376
    5df8:	d0a6bf15 	stw	r2,-25860(gp)
    5dfc:	0001883a 	nop
    5e00:	e037883a 	mov	sp,fp
    5e04:	dfc00117 	ldw	ra,4(sp)
    5e08:	df000017 	ldw	fp,0(sp)
    5e0c:	dec00204 	addi	sp,sp,8
    5e10:	f800283a 	ret

00005e14 <OSSemAccept>:
    5e14:	defffa04 	addi	sp,sp,-24
    5e18:	df000515 	stw	fp,20(sp)
    5e1c:	df000504 	addi	fp,sp,20
    5e20:	e13fff15 	stw	r4,-4(fp)
    5e24:	e03ffb15 	stw	zero,-20(fp)
    5e28:	e0bfff17 	ldw	r2,-4(fp)
    5e2c:	1000021e 	bne	r2,zero,5e38 <OSSemAccept+0x24>
    5e30:	0005883a 	mov	r2,zero
    5e34:	00001f06 	br	5eb4 <OSSemAccept+0xa0>
    5e38:	e0bfff17 	ldw	r2,-4(fp)
    5e3c:	10800003 	ldbu	r2,0(r2)
    5e40:	10803fcc 	andi	r2,r2,255
    5e44:	108000e0 	cmpeqi	r2,r2,3
    5e48:	1000021e 	bne	r2,zero,5e54 <OSSemAccept+0x40>
    5e4c:	0005883a 	mov	r2,zero
    5e50:	00001806 	br	5eb4 <OSSemAccept+0xa0>
    5e54:	0005303a 	rdctl	r2,status
    5e58:	e0bffe15 	stw	r2,-8(fp)
    5e5c:	e0fffe17 	ldw	r3,-8(fp)
    5e60:	00bfff84 	movi	r2,-2
    5e64:	1884703a 	and	r2,r3,r2
    5e68:	1001703a 	wrctl	status,r2
    5e6c:	e0bffe17 	ldw	r2,-8(fp)
    5e70:	e0bffb15 	stw	r2,-20(fp)
    5e74:	e0bfff17 	ldw	r2,-4(fp)
    5e78:	1080020b 	ldhu	r2,8(r2)
    5e7c:	e0bffd0d 	sth	r2,-12(fp)
    5e80:	e0bffd0b 	ldhu	r2,-12(fp)
    5e84:	10000626 	beq	r2,zero,5ea0 <OSSemAccept+0x8c>
    5e88:	e0bfff17 	ldw	r2,-4(fp)
    5e8c:	1080020b 	ldhu	r2,8(r2)
    5e90:	10bfffc4 	addi	r2,r2,-1
    5e94:	1007883a 	mov	r3,r2
    5e98:	e0bfff17 	ldw	r2,-4(fp)
    5e9c:	10c0020d 	sth	r3,8(r2)
    5ea0:	e0bffb17 	ldw	r2,-20(fp)
    5ea4:	e0bffc15 	stw	r2,-16(fp)
    5ea8:	e0bffc17 	ldw	r2,-16(fp)
    5eac:	1001703a 	wrctl	status,r2
    5eb0:	e0bffd0b 	ldhu	r2,-12(fp)
    5eb4:	e037883a 	mov	sp,fp
    5eb8:	df000017 	ldw	fp,0(sp)
    5ebc:	dec00104 	addi	sp,sp,4
    5ec0:	f800283a 	ret

00005ec4 <OSSemCreate>:
    5ec4:	defff904 	addi	sp,sp,-28
    5ec8:	dfc00615 	stw	ra,24(sp)
    5ecc:	df000515 	stw	fp,20(sp)
    5ed0:	df000504 	addi	fp,sp,20
    5ed4:	2005883a 	mov	r2,r4
    5ed8:	e0bfff0d 	sth	r2,-4(fp)
    5edc:	e03ffb15 	stw	zero,-20(fp)
    5ee0:	d0a6c203 	ldbu	r2,-25848(gp)
    5ee4:	10803fcc 	andi	r2,r2,255
    5ee8:	10000226 	beq	r2,zero,5ef4 <OSSemCreate+0x30>
    5eec:	0005883a 	mov	r2,zero
    5ef0:	00002506 	br	5f88 <OSSemCreate+0xc4>
    5ef4:	0005303a 	rdctl	r2,status
    5ef8:	e0bffe15 	stw	r2,-8(fp)
    5efc:	e0fffe17 	ldw	r3,-8(fp)
    5f00:	00bfff84 	movi	r2,-2
    5f04:	1884703a 	and	r2,r3,r2
    5f08:	1001703a 	wrctl	status,r2
    5f0c:	e0bffe17 	ldw	r2,-8(fp)
    5f10:	e0bffb15 	stw	r2,-20(fp)
    5f14:	d0a6c117 	ldw	r2,-25852(gp)
    5f18:	e0bffd15 	stw	r2,-12(fp)
    5f1c:	d0a6c117 	ldw	r2,-25852(gp)
    5f20:	10000326 	beq	r2,zero,5f30 <OSSemCreate+0x6c>
    5f24:	d0a6c117 	ldw	r2,-25852(gp)
    5f28:	10800117 	ldw	r2,4(r2)
    5f2c:	d0a6c115 	stw	r2,-25852(gp)
    5f30:	e0bffb17 	ldw	r2,-20(fp)
    5f34:	e0bffc15 	stw	r2,-16(fp)
    5f38:	e0bffc17 	ldw	r2,-16(fp)
    5f3c:	1001703a 	wrctl	status,r2
    5f40:	e0bffd17 	ldw	r2,-12(fp)
    5f44:	10000f26 	beq	r2,zero,5f84 <OSSemCreate+0xc0>
    5f48:	e0bffd17 	ldw	r2,-12(fp)
    5f4c:	00c000c4 	movi	r3,3
    5f50:	10c00005 	stb	r3,0(r2)
    5f54:	e0bffd17 	ldw	r2,-12(fp)
    5f58:	e0ffff0b 	ldhu	r3,-4(fp)
    5f5c:	10c0020d 	sth	r3,8(r2)
    5f60:	e0bffd17 	ldw	r2,-12(fp)
    5f64:	10000115 	stw	zero,4(r2)
    5f68:	e0bffd17 	ldw	r2,-12(fp)
    5f6c:	00c00fc4 	movi	r3,63
    5f70:	10c00385 	stb	r3,14(r2)
    5f74:	e0bffd17 	ldw	r2,-12(fp)
    5f78:	100003c5 	stb	zero,15(r2)
    5f7c:	e13ffd17 	ldw	r4,-12(fp)
    5f80:	00021980 	call	2198 <OS_EventWaitListInit>
    5f84:	e0bffd17 	ldw	r2,-12(fp)
    5f88:	e037883a 	mov	sp,fp
    5f8c:	dfc00117 	ldw	ra,4(sp)
    5f90:	df000017 	ldw	fp,0(sp)
    5f94:	dec00204 	addi	sp,sp,8
    5f98:	f800283a 	ret

00005f9c <OSSemDel>:
    5f9c:	defff304 	addi	sp,sp,-52
    5fa0:	dfc00c15 	stw	ra,48(sp)
    5fa4:	df000b15 	stw	fp,44(sp)
    5fa8:	df000b04 	addi	fp,sp,44
    5fac:	e13ffd15 	stw	r4,-12(fp)
    5fb0:	2805883a 	mov	r2,r5
    5fb4:	e1bfff15 	stw	r6,-4(fp)
    5fb8:	e0bffe05 	stb	r2,-8(fp)
    5fbc:	e03ff715 	stw	zero,-36(fp)
    5fc0:	e0bfff17 	ldw	r2,-4(fp)
    5fc4:	1000021e 	bne	r2,zero,5fd0 <OSSemDel+0x34>
    5fc8:	e0bffd17 	ldw	r2,-12(fp)
    5fcc:	00007e06 	br	61c8 <OSSemDel+0x22c>
    5fd0:	e0bffd17 	ldw	r2,-12(fp)
    5fd4:	1000051e 	bne	r2,zero,5fec <OSSemDel+0x50>
    5fd8:	e0bfff17 	ldw	r2,-4(fp)
    5fdc:	00c00104 	movi	r3,4
    5fe0:	10c00005 	stb	r3,0(r2)
    5fe4:	e0bffd17 	ldw	r2,-12(fp)
    5fe8:	00007706 	br	61c8 <OSSemDel+0x22c>
    5fec:	e0bffd17 	ldw	r2,-12(fp)
    5ff0:	10800003 	ldbu	r2,0(r2)
    5ff4:	10803fcc 	andi	r2,r2,255
    5ff8:	108000e0 	cmpeqi	r2,r2,3
    5ffc:	1000051e 	bne	r2,zero,6014 <OSSemDel+0x78>
    6000:	e0bfff17 	ldw	r2,-4(fp)
    6004:	00c00044 	movi	r3,1
    6008:	10c00005 	stb	r3,0(r2)
